
PrivateSafe.elf:     file format elf32-avr

Sections:
Idx Name          Size      VMA       LMA       File off  Algn
  0 .text         00000d2a  00000000  00000000  00000074  2**1
                  CONTENTS, ALLOC, LOAD, READONLY, CODE
  1 .data         000000b4  00800060  00000d2a  00000d9e  2**0
                  CONTENTS, ALLOC, LOAD, DATA
  2 .stab         000006cc  00000000  00000000  00000e54  2**2
                  CONTENTS, READONLY, DEBUGGING
  3 .stabstr      00000085  00000000  00000000  00001520  2**0
                  CONTENTS, READONLY, DEBUGGING
  4 .debug_aranges 00000100  00000000  00000000  000015a8  2**3
                  CONTENTS, READONLY, DEBUGGING
  5 .debug_info   00001045  00000000  00000000  000016a8  2**0
                  CONTENTS, READONLY, DEBUGGING
  6 .debug_abbrev 00000503  00000000  00000000  000026ed  2**0
                  CONTENTS, READONLY, DEBUGGING
  7 .debug_line   000008f7  00000000  00000000  00002bf0  2**0
                  CONTENTS, READONLY, DEBUGGING
  8 .debug_frame  00000288  00000000  00000000  000034e8  2**2
                  CONTENTS, READONLY, DEBUGGING
  9 .debug_str    000002e4  00000000  00000000  00003770  2**0
                  CONTENTS, READONLY, DEBUGGING
 10 .debug_loc    00000c9e  00000000  00000000  00003a54  2**0
                  CONTENTS, READONLY, DEBUGGING

Disassembly of section .text:

00000000 <__vectors>:
   0:	0c 94 2a 00 	jmp	0x54	; 0x54 <__ctors_end>
   4:	0c 94 47 00 	jmp	0x8e	; 0x8e <__bad_interrupt>
   8:	0c 94 47 00 	jmp	0x8e	; 0x8e <__bad_interrupt>
   c:	0c 94 47 00 	jmp	0x8e	; 0x8e <__bad_interrupt>
  10:	0c 94 47 00 	jmp	0x8e	; 0x8e <__bad_interrupt>
  14:	0c 94 47 00 	jmp	0x8e	; 0x8e <__bad_interrupt>
  18:	0c 94 47 00 	jmp	0x8e	; 0x8e <__bad_interrupt>
  1c:	0c 94 47 00 	jmp	0x8e	; 0x8e <__bad_interrupt>
  20:	0c 94 47 00 	jmp	0x8e	; 0x8e <__bad_interrupt>
  24:	0c 94 47 00 	jmp	0x8e	; 0x8e <__bad_interrupt>
  28:	0c 94 47 00 	jmp	0x8e	; 0x8e <__bad_interrupt>
  2c:	0c 94 47 00 	jmp	0x8e	; 0x8e <__bad_interrupt>
  30:	0c 94 47 00 	jmp	0x8e	; 0x8e <__bad_interrupt>
  34:	0c 94 47 00 	jmp	0x8e	; 0x8e <__bad_interrupt>
  38:	0c 94 47 00 	jmp	0x8e	; 0x8e <__bad_interrupt>
  3c:	0c 94 47 00 	jmp	0x8e	; 0x8e <__bad_interrupt>
  40:	0c 94 47 00 	jmp	0x8e	; 0x8e <__bad_interrupt>
  44:	0c 94 47 00 	jmp	0x8e	; 0x8e <__bad_interrupt>
  48:	0c 94 47 00 	jmp	0x8e	; 0x8e <__bad_interrupt>
  4c:	0c 94 47 00 	jmp	0x8e	; 0x8e <__bad_interrupt>
  50:	0c 94 47 00 	jmp	0x8e	; 0x8e <__bad_interrupt>

00000054 <__ctors_end>:
  54:	11 24       	eor	r1, r1
  56:	1f be       	out	0x3f, r1	; 63
  58:	cf e5       	ldi	r28, 0x5F	; 95
  5a:	d8 e0       	ldi	r29, 0x08	; 8
  5c:	de bf       	out	0x3e, r29	; 62
  5e:	cd bf       	out	0x3d, r28	; 61

00000060 <__do_copy_data>:
  60:	11 e0       	ldi	r17, 0x01	; 1
  62:	a0 e6       	ldi	r26, 0x60	; 96
  64:	b0 e0       	ldi	r27, 0x00	; 0
  66:	ea e2       	ldi	r30, 0x2A	; 42
  68:	fd e0       	ldi	r31, 0x0D	; 13
  6a:	02 c0       	rjmp	.+4      	; 0x70 <__do_copy_data+0x10>
  6c:	05 90       	lpm	r0, Z+
  6e:	0d 92       	st	X+, r0
  70:	a4 31       	cpi	r26, 0x14	; 20
  72:	b1 07       	cpc	r27, r17
  74:	d9 f7       	brne	.-10     	; 0x6c <__do_copy_data+0xc>

00000076 <__do_clear_bss>:
  76:	11 e0       	ldi	r17, 0x01	; 1
  78:	a4 e1       	ldi	r26, 0x14	; 20
  7a:	b1 e0       	ldi	r27, 0x01	; 1
  7c:	01 c0       	rjmp	.+2      	; 0x80 <.do_clear_bss_start>

0000007e <.do_clear_bss_loop>:
  7e:	1d 92       	st	X+, r1

00000080 <.do_clear_bss_start>:
  80:	a4 31       	cpi	r26, 0x14	; 20
  82:	b1 07       	cpc	r27, r17
  84:	e1 f7       	brne	.-8      	; 0x7e <.do_clear_bss_loop>
  86:	0e 94 41 05 	call	0xa82	; 0xa82 <main>
  8a:	0c 94 93 06 	jmp	0xd26	; 0xd26 <_exit>

0000008e <__bad_interrupt>:
  8e:	0c 94 00 00 	jmp	0	; 0x0 <__vectors>

00000092 <DIO_vSetPinDir>:
#include "std_macros.h"
#include <avr/io.h>

void DIO_vSetPinDir(unsigned char portname,unsigned char pinnumber,unsigned char direction)
{
	switch(portname)
  92:	84 34       	cpi	r24, 0x44	; 68
  94:	09 f4       	brne	.+2      	; 0x98 <DIO_vSetPinDir+0x6>
  96:	71 c0       	rjmp	.+226    	; 0x17a <DIO_vSetPinDir+0xe8>
  98:	85 34       	cpi	r24, 0x45	; 69
  9a:	48 f4       	brcc	.+18     	; 0xae <DIO_vSetPinDir+0x1c>
  9c:	82 34       	cpi	r24, 0x42	; 66
  9e:	99 f1       	breq	.+102    	; 0x106 <DIO_vSetPinDir+0x74>
  a0:	83 34       	cpi	r24, 0x43	; 67
  a2:	08 f0       	brcs	.+2      	; 0xa6 <DIO_vSetPinDir+0x14>
  a4:	4d c0       	rjmp	.+154    	; 0x140 <DIO_vSetPinDir+0xae>
  a6:	81 34       	cpi	r24, 0x41	; 65
  a8:	09 f0       	breq	.+2      	; 0xac <DIO_vSetPinDir+0x1a>
  aa:	83 c0       	rjmp	.+262    	; 0x1b2 <DIO_vSetPinDir+0x120>
  ac:	0f c0       	rjmp	.+30     	; 0xcc <DIO_vSetPinDir+0x3a>
  ae:	82 36       	cpi	r24, 0x62	; 98
  b0:	51 f1       	breq	.+84     	; 0x106 <DIO_vSetPinDir+0x74>
  b2:	83 36       	cpi	r24, 0x63	; 99
  b4:	20 f4       	brcc	.+8      	; 0xbe <DIO_vSetPinDir+0x2c>
  b6:	81 36       	cpi	r24, 0x61	; 97
  b8:	09 f0       	breq	.+2      	; 0xbc <DIO_vSetPinDir+0x2a>
  ba:	7b c0       	rjmp	.+246    	; 0x1b2 <DIO_vSetPinDir+0x120>
  bc:	07 c0       	rjmp	.+14     	; 0xcc <DIO_vSetPinDir+0x3a>
  be:	83 36       	cpi	r24, 0x63	; 99
  c0:	09 f4       	brne	.+2      	; 0xc4 <DIO_vSetPinDir+0x32>
  c2:	3e c0       	rjmp	.+124    	; 0x140 <DIO_vSetPinDir+0xae>
  c4:	84 36       	cpi	r24, 0x64	; 100
  c6:	09 f0       	breq	.+2      	; 0xca <DIO_vSetPinDir+0x38>
  c8:	74 c0       	rjmp	.+232    	; 0x1b2 <DIO_vSetPinDir+0x120>
  ca:	57 c0       	rjmp	.+174    	; 0x17a <DIO_vSetPinDir+0xe8>
	{
		case 'A':
		case 'a':
		{
			if(direction==1) SET_BIT(DDRA,pinnumber);
  cc:	41 30       	cpi	r20, 0x01	; 1
  ce:	69 f4       	brne	.+26     	; 0xea <DIO_vSetPinDir+0x58>
  d0:	2a b3       	in	r18, 0x1a	; 26
  d2:	81 e0       	ldi	r24, 0x01	; 1
  d4:	90 e0       	ldi	r25, 0x00	; 0
  d6:	ac 01       	movw	r20, r24
  d8:	02 c0       	rjmp	.+4      	; 0xde <DIO_vSetPinDir+0x4c>
  da:	44 0f       	add	r20, r20
  dc:	55 1f       	adc	r21, r21
  de:	6a 95       	dec	r22
  e0:	e2 f7       	brpl	.-8      	; 0xda <DIO_vSetPinDir+0x48>
  e2:	ba 01       	movw	r22, r20
  e4:	62 2b       	or	r22, r18
  e6:	6a bb       	out	0x1a, r22	; 26
  e8:	08 95       	ret
			else CLR_BIT(DDRA,pinnumber);
  ea:	2a b3       	in	r18, 0x1a	; 26
  ec:	81 e0       	ldi	r24, 0x01	; 1
  ee:	90 e0       	ldi	r25, 0x00	; 0
  f0:	ac 01       	movw	r20, r24
  f2:	02 c0       	rjmp	.+4      	; 0xf8 <DIO_vSetPinDir+0x66>
  f4:	44 0f       	add	r20, r20
  f6:	55 1f       	adc	r21, r21
  f8:	6a 95       	dec	r22
  fa:	e2 f7       	brpl	.-8      	; 0xf4 <DIO_vSetPinDir+0x62>
  fc:	ba 01       	movw	r22, r20
  fe:	60 95       	com	r22
 100:	62 23       	and	r22, r18
 102:	6a bb       	out	0x1a, r22	; 26
 104:	08 95       	ret
		break;
		
		case 'B':
		case 'b':
		{
			if(direction==1) SET_BIT(DDRB,pinnumber);
 106:	41 30       	cpi	r20, 0x01	; 1
 108:	69 f4       	brne	.+26     	; 0x124 <DIO_vSetPinDir+0x92>
 10a:	27 b3       	in	r18, 0x17	; 23
 10c:	81 e0       	ldi	r24, 0x01	; 1
 10e:	90 e0       	ldi	r25, 0x00	; 0
 110:	ac 01       	movw	r20, r24
 112:	02 c0       	rjmp	.+4      	; 0x118 <DIO_vSetPinDir+0x86>
 114:	44 0f       	add	r20, r20
 116:	55 1f       	adc	r21, r21
 118:	6a 95       	dec	r22
 11a:	e2 f7       	brpl	.-8      	; 0x114 <DIO_vSetPinDir+0x82>
 11c:	ba 01       	movw	r22, r20
 11e:	62 2b       	or	r22, r18
 120:	67 bb       	out	0x17, r22	; 23
 122:	08 95       	ret
			else CLR_BIT(DDRB,pinnumber);
 124:	27 b3       	in	r18, 0x17	; 23
 126:	81 e0       	ldi	r24, 0x01	; 1
 128:	90 e0       	ldi	r25, 0x00	; 0
 12a:	ac 01       	movw	r20, r24
 12c:	02 c0       	rjmp	.+4      	; 0x132 <DIO_vSetPinDir+0xa0>
 12e:	44 0f       	add	r20, r20
 130:	55 1f       	adc	r21, r21
 132:	6a 95       	dec	r22
 134:	e2 f7       	brpl	.-8      	; 0x12e <DIO_vSetPinDir+0x9c>
 136:	ba 01       	movw	r22, r20
 138:	60 95       	com	r22
 13a:	62 23       	and	r22, r18
 13c:	67 bb       	out	0x17, r22	; 23
 13e:	08 95       	ret
		break;
		
		case 'C':
		case 'c':
		{
			if(direction==1) SET_BIT(DDRC,pinnumber);
 140:	41 30       	cpi	r20, 0x01	; 1
 142:	69 f4       	brne	.+26     	; 0x15e <DIO_vSetPinDir+0xcc>
 144:	24 b3       	in	r18, 0x14	; 20
 146:	81 e0       	ldi	r24, 0x01	; 1
 148:	90 e0       	ldi	r25, 0x00	; 0
 14a:	ac 01       	movw	r20, r24
 14c:	02 c0       	rjmp	.+4      	; 0x152 <DIO_vSetPinDir+0xc0>
 14e:	44 0f       	add	r20, r20
 150:	55 1f       	adc	r21, r21
 152:	6a 95       	dec	r22
 154:	e2 f7       	brpl	.-8      	; 0x14e <DIO_vSetPinDir+0xbc>
 156:	ba 01       	movw	r22, r20
 158:	62 2b       	or	r22, r18
 15a:	64 bb       	out	0x14, r22	; 20
 15c:	08 95       	ret
			else CLR_BIT(DDRC,pinnumber);
 15e:	24 b3       	in	r18, 0x14	; 20
 160:	81 e0       	ldi	r24, 0x01	; 1
 162:	90 e0       	ldi	r25, 0x00	; 0
 164:	ac 01       	movw	r20, r24
 166:	02 c0       	rjmp	.+4      	; 0x16c <DIO_vSetPinDir+0xda>
 168:	44 0f       	add	r20, r20
 16a:	55 1f       	adc	r21, r21
 16c:	6a 95       	dec	r22
 16e:	e2 f7       	brpl	.-8      	; 0x168 <DIO_vSetPinDir+0xd6>
 170:	ba 01       	movw	r22, r20
 172:	60 95       	com	r22
 174:	62 23       	and	r22, r18
 176:	64 bb       	out	0x14, r22	; 20
 178:	08 95       	ret
		break;
		
		case 'D':
		case 'd':
		{
			if(direction==1) SET_BIT(DDRD,pinnumber);
 17a:	41 30       	cpi	r20, 0x01	; 1
 17c:	69 f4       	brne	.+26     	; 0x198 <DIO_vSetPinDir+0x106>
 17e:	21 b3       	in	r18, 0x11	; 17
 180:	81 e0       	ldi	r24, 0x01	; 1
 182:	90 e0       	ldi	r25, 0x00	; 0
 184:	ac 01       	movw	r20, r24
 186:	02 c0       	rjmp	.+4      	; 0x18c <DIO_vSetPinDir+0xfa>
 188:	44 0f       	add	r20, r20
 18a:	55 1f       	adc	r21, r21
 18c:	6a 95       	dec	r22
 18e:	e2 f7       	brpl	.-8      	; 0x188 <DIO_vSetPinDir+0xf6>
 190:	ba 01       	movw	r22, r20
 192:	62 2b       	or	r22, r18
 194:	61 bb       	out	0x11, r22	; 17
 196:	08 95       	ret
			else CLR_BIT(DDRD,pinnumber);
 198:	21 b3       	in	r18, 0x11	; 17
 19a:	81 e0       	ldi	r24, 0x01	; 1
 19c:	90 e0       	ldi	r25, 0x00	; 0
 19e:	ac 01       	movw	r20, r24
 1a0:	02 c0       	rjmp	.+4      	; 0x1a6 <DIO_vSetPinDir+0x114>
 1a2:	44 0f       	add	r20, r20
 1a4:	55 1f       	adc	r21, r21
 1a6:	6a 95       	dec	r22
 1a8:	e2 f7       	brpl	.-8      	; 0x1a2 <DIO_vSetPinDir+0x110>
 1aa:	ba 01       	movw	r22, r20
 1ac:	60 95       	com	r22
 1ae:	62 23       	and	r22, r18
 1b0:	61 bb       	out	0x11, r22	; 17
 1b2:	08 95       	ret

000001b4 <DIO_vWrite>:
	}
}

void DIO_vWrite(unsigned char portname, unsigned char pinnumber, unsigned char val)
{
	switch(portname)
 1b4:	84 34       	cpi	r24, 0x44	; 68
 1b6:	09 f4       	brne	.+2      	; 0x1ba <DIO_vWrite+0x6>
 1b8:	71 c0       	rjmp	.+226    	; 0x29c <DIO_vWrite+0xe8>
 1ba:	85 34       	cpi	r24, 0x45	; 69
 1bc:	48 f4       	brcc	.+18     	; 0x1d0 <DIO_vWrite+0x1c>
 1be:	82 34       	cpi	r24, 0x42	; 66
 1c0:	99 f1       	breq	.+102    	; 0x228 <DIO_vWrite+0x74>
 1c2:	83 34       	cpi	r24, 0x43	; 67
 1c4:	08 f0       	brcs	.+2      	; 0x1c8 <DIO_vWrite+0x14>
 1c6:	4d c0       	rjmp	.+154    	; 0x262 <DIO_vWrite+0xae>
 1c8:	81 34       	cpi	r24, 0x41	; 65
 1ca:	09 f0       	breq	.+2      	; 0x1ce <DIO_vWrite+0x1a>
 1cc:	83 c0       	rjmp	.+262    	; 0x2d4 <DIO_vWrite+0x120>
 1ce:	0f c0       	rjmp	.+30     	; 0x1ee <DIO_vWrite+0x3a>
 1d0:	82 36       	cpi	r24, 0x62	; 98
 1d2:	51 f1       	breq	.+84     	; 0x228 <DIO_vWrite+0x74>
 1d4:	83 36       	cpi	r24, 0x63	; 99
 1d6:	20 f4       	brcc	.+8      	; 0x1e0 <DIO_vWrite+0x2c>
 1d8:	81 36       	cpi	r24, 0x61	; 97
 1da:	09 f0       	breq	.+2      	; 0x1de <DIO_vWrite+0x2a>
 1dc:	7b c0       	rjmp	.+246    	; 0x2d4 <DIO_vWrite+0x120>
 1de:	07 c0       	rjmp	.+14     	; 0x1ee <DIO_vWrite+0x3a>
 1e0:	83 36       	cpi	r24, 0x63	; 99
 1e2:	09 f4       	brne	.+2      	; 0x1e6 <DIO_vWrite+0x32>
 1e4:	3e c0       	rjmp	.+124    	; 0x262 <DIO_vWrite+0xae>
 1e6:	84 36       	cpi	r24, 0x64	; 100
 1e8:	09 f0       	breq	.+2      	; 0x1ec <DIO_vWrite+0x38>
 1ea:	74 c0       	rjmp	.+232    	; 0x2d4 <DIO_vWrite+0x120>
 1ec:	57 c0       	rjmp	.+174    	; 0x29c <DIO_vWrite+0xe8>
	{
		case 'A':
		case 'a':
		{
			if(val==1) SET_BIT(PORTA,pinnumber);
 1ee:	41 30       	cpi	r20, 0x01	; 1
 1f0:	69 f4       	brne	.+26     	; 0x20c <DIO_vWrite+0x58>
 1f2:	2b b3       	in	r18, 0x1b	; 27
 1f4:	81 e0       	ldi	r24, 0x01	; 1
 1f6:	90 e0       	ldi	r25, 0x00	; 0
 1f8:	ac 01       	movw	r20, r24
 1fa:	02 c0       	rjmp	.+4      	; 0x200 <DIO_vWrite+0x4c>
 1fc:	44 0f       	add	r20, r20
 1fe:	55 1f       	adc	r21, r21
 200:	6a 95       	dec	r22
 202:	e2 f7       	brpl	.-8      	; 0x1fc <DIO_vWrite+0x48>
 204:	ba 01       	movw	r22, r20
 206:	62 2b       	or	r22, r18
 208:	6b bb       	out	0x1b, r22	; 27
 20a:	08 95       	ret
			else CLR_BIT(PORTA,pinnumber);
 20c:	2b b3       	in	r18, 0x1b	; 27
 20e:	81 e0       	ldi	r24, 0x01	; 1
 210:	90 e0       	ldi	r25, 0x00	; 0
 212:	ac 01       	movw	r20, r24
 214:	02 c0       	rjmp	.+4      	; 0x21a <DIO_vWrite+0x66>
 216:	44 0f       	add	r20, r20
 218:	55 1f       	adc	r21, r21
 21a:	6a 95       	dec	r22
 21c:	e2 f7       	brpl	.-8      	; 0x216 <DIO_vWrite+0x62>
 21e:	ba 01       	movw	r22, r20
 220:	60 95       	com	r22
 222:	62 23       	and	r22, r18
 224:	6b bb       	out	0x1b, r22	; 27
 226:	08 95       	ret
		break;
		
		case 'B':
		case 'b':
		{
			if(val==1) SET_BIT(PORTB,pinnumber);
 228:	41 30       	cpi	r20, 0x01	; 1
 22a:	69 f4       	brne	.+26     	; 0x246 <DIO_vWrite+0x92>
 22c:	28 b3       	in	r18, 0x18	; 24
 22e:	81 e0       	ldi	r24, 0x01	; 1
 230:	90 e0       	ldi	r25, 0x00	; 0
 232:	ac 01       	movw	r20, r24
 234:	02 c0       	rjmp	.+4      	; 0x23a <DIO_vWrite+0x86>
 236:	44 0f       	add	r20, r20
 238:	55 1f       	adc	r21, r21
 23a:	6a 95       	dec	r22
 23c:	e2 f7       	brpl	.-8      	; 0x236 <DIO_vWrite+0x82>
 23e:	ba 01       	movw	r22, r20
 240:	62 2b       	or	r22, r18
 242:	68 bb       	out	0x18, r22	; 24
 244:	08 95       	ret
			else CLR_BIT(PORTB,pinnumber);
 246:	28 b3       	in	r18, 0x18	; 24
 248:	81 e0       	ldi	r24, 0x01	; 1
 24a:	90 e0       	ldi	r25, 0x00	; 0
 24c:	ac 01       	movw	r20, r24
 24e:	02 c0       	rjmp	.+4      	; 0x254 <DIO_vWrite+0xa0>
 250:	44 0f       	add	r20, r20
 252:	55 1f       	adc	r21, r21
 254:	6a 95       	dec	r22
 256:	e2 f7       	brpl	.-8      	; 0x250 <DIO_vWrite+0x9c>
 258:	ba 01       	movw	r22, r20
 25a:	60 95       	com	r22
 25c:	62 23       	and	r22, r18
 25e:	68 bb       	out	0x18, r22	; 24
 260:	08 95       	ret
		break;
		
		case 'C':
		case 'c':
		{
			if(val==1) SET_BIT(PORTC,pinnumber);
 262:	41 30       	cpi	r20, 0x01	; 1
 264:	69 f4       	brne	.+26     	; 0x280 <DIO_vWrite+0xcc>
 266:	25 b3       	in	r18, 0x15	; 21
 268:	81 e0       	ldi	r24, 0x01	; 1
 26a:	90 e0       	ldi	r25, 0x00	; 0
 26c:	ac 01       	movw	r20, r24
 26e:	02 c0       	rjmp	.+4      	; 0x274 <DIO_vWrite+0xc0>
 270:	44 0f       	add	r20, r20
 272:	55 1f       	adc	r21, r21
 274:	6a 95       	dec	r22
 276:	e2 f7       	brpl	.-8      	; 0x270 <DIO_vWrite+0xbc>
 278:	ba 01       	movw	r22, r20
 27a:	62 2b       	or	r22, r18
 27c:	65 bb       	out	0x15, r22	; 21
 27e:	08 95       	ret
			else CLR_BIT(PORTC,pinnumber);
 280:	25 b3       	in	r18, 0x15	; 21
 282:	81 e0       	ldi	r24, 0x01	; 1
 284:	90 e0       	ldi	r25, 0x00	; 0
 286:	ac 01       	movw	r20, r24
 288:	02 c0       	rjmp	.+4      	; 0x28e <DIO_vWrite+0xda>
 28a:	44 0f       	add	r20, r20
 28c:	55 1f       	adc	r21, r21
 28e:	6a 95       	dec	r22
 290:	e2 f7       	brpl	.-8      	; 0x28a <DIO_vWrite+0xd6>
 292:	ba 01       	movw	r22, r20
 294:	60 95       	com	r22
 296:	62 23       	and	r22, r18
 298:	65 bb       	out	0x15, r22	; 21
 29a:	08 95       	ret
		break;
		
		case 'D':
		case 'd':
		{
			if(val==1) SET_BIT(PORTD,pinnumber);
 29c:	41 30       	cpi	r20, 0x01	; 1
 29e:	69 f4       	brne	.+26     	; 0x2ba <DIO_vWrite+0x106>
 2a0:	22 b3       	in	r18, 0x12	; 18
 2a2:	81 e0       	ldi	r24, 0x01	; 1
 2a4:	90 e0       	ldi	r25, 0x00	; 0
 2a6:	ac 01       	movw	r20, r24
 2a8:	02 c0       	rjmp	.+4      	; 0x2ae <DIO_vWrite+0xfa>
 2aa:	44 0f       	add	r20, r20
 2ac:	55 1f       	adc	r21, r21
 2ae:	6a 95       	dec	r22
 2b0:	e2 f7       	brpl	.-8      	; 0x2aa <DIO_vWrite+0xf6>
 2b2:	ba 01       	movw	r22, r20
 2b4:	62 2b       	or	r22, r18
 2b6:	62 bb       	out	0x12, r22	; 18
 2b8:	08 95       	ret
			else CLR_BIT(PORTD,pinnumber);
 2ba:	22 b3       	in	r18, 0x12	; 18
 2bc:	81 e0       	ldi	r24, 0x01	; 1
 2be:	90 e0       	ldi	r25, 0x00	; 0
 2c0:	ac 01       	movw	r20, r24
 2c2:	02 c0       	rjmp	.+4      	; 0x2c8 <DIO_vWrite+0x114>
 2c4:	44 0f       	add	r20, r20
 2c6:	55 1f       	adc	r21, r21
 2c8:	6a 95       	dec	r22
 2ca:	e2 f7       	brpl	.-8      	; 0x2c4 <DIO_vWrite+0x110>
 2cc:	ba 01       	movw	r22, r20
 2ce:	60 95       	com	r22
 2d0:	62 23       	and	r22, r18
 2d2:	62 bb       	out	0x12, r22	; 18
 2d4:	08 95       	ret

000002d6 <DIO_vToggle>:
	}
}

void DIO_vToggle(unsigned char portname, unsigned char pinnumber)
{
	switch(portname)
 2d6:	84 34       	cpi	r24, 0x44	; 68
 2d8:	09 f4       	brne	.+2      	; 0x2dc <DIO_vToggle+0x6>
 2da:	3d c0       	rjmp	.+122    	; 0x356 <DIO_vToggle+0x80>
 2dc:	85 34       	cpi	r24, 0x45	; 69
 2de:	40 f4       	brcc	.+16     	; 0x2f0 <DIO_vToggle+0x1a>
 2e0:	82 34       	cpi	r24, 0x42	; 66
 2e2:	f9 f0       	breq	.+62     	; 0x322 <DIO_vToggle+0x4c>
 2e4:	83 34       	cpi	r24, 0x43	; 67
 2e6:	50 f5       	brcc	.+84     	; 0x33c <DIO_vToggle+0x66>
 2e8:	81 34       	cpi	r24, 0x41	; 65
 2ea:	09 f0       	breq	.+2      	; 0x2ee <DIO_vToggle+0x18>
 2ec:	40 c0       	rjmp	.+128    	; 0x36e <DIO_vToggle+0x98>
 2ee:	0c c0       	rjmp	.+24     	; 0x308 <DIO_vToggle+0x32>
 2f0:	82 36       	cpi	r24, 0x62	; 98
 2f2:	b9 f0       	breq	.+46     	; 0x322 <DIO_vToggle+0x4c>
 2f4:	83 36       	cpi	r24, 0x63	; 99
 2f6:	18 f4       	brcc	.+6      	; 0x2fe <DIO_vToggle+0x28>
 2f8:	81 36       	cpi	r24, 0x61	; 97
 2fa:	c9 f5       	brne	.+114    	; 0x36e <DIO_vToggle+0x98>
 2fc:	05 c0       	rjmp	.+10     	; 0x308 <DIO_vToggle+0x32>
 2fe:	83 36       	cpi	r24, 0x63	; 99
 300:	e9 f0       	breq	.+58     	; 0x33c <DIO_vToggle+0x66>
 302:	84 36       	cpi	r24, 0x64	; 100
 304:	a1 f5       	brne	.+104    	; 0x36e <DIO_vToggle+0x98>
 306:	27 c0       	rjmp	.+78     	; 0x356 <DIO_vToggle+0x80>
	{
		case 'A':
		case 'a':
		{
			TOG_BIT(PORTA,pinnumber);
 308:	2b b3       	in	r18, 0x1b	; 27
 30a:	81 e0       	ldi	r24, 0x01	; 1
 30c:	90 e0       	ldi	r25, 0x00	; 0
 30e:	ac 01       	movw	r20, r24
 310:	02 c0       	rjmp	.+4      	; 0x316 <DIO_vToggle+0x40>
 312:	44 0f       	add	r20, r20
 314:	55 1f       	adc	r21, r21
 316:	6a 95       	dec	r22
 318:	e2 f7       	brpl	.-8      	; 0x312 <DIO_vToggle+0x3c>
 31a:	ba 01       	movw	r22, r20
 31c:	62 27       	eor	r22, r18
 31e:	6b bb       	out	0x1b, r22	; 27
		}
		break;
 320:	08 95       	ret
		
		case 'B':
		case 'b':
		{
			TOG_BIT(PORTB,pinnumber);
 322:	28 b3       	in	r18, 0x18	; 24
 324:	81 e0       	ldi	r24, 0x01	; 1
 326:	90 e0       	ldi	r25, 0x00	; 0
 328:	ac 01       	movw	r20, r24
 32a:	02 c0       	rjmp	.+4      	; 0x330 <DIO_vToggle+0x5a>
 32c:	44 0f       	add	r20, r20
 32e:	55 1f       	adc	r21, r21
 330:	6a 95       	dec	r22
 332:	e2 f7       	brpl	.-8      	; 0x32c <DIO_vToggle+0x56>
 334:	ba 01       	movw	r22, r20
 336:	62 27       	eor	r22, r18
 338:	68 bb       	out	0x18, r22	; 24
		}
		break;
 33a:	08 95       	ret
		
		case 'C':
		case 'c':
		{
			TOG_BIT(PORTC,pinnumber);
 33c:	25 b3       	in	r18, 0x15	; 21
 33e:	81 e0       	ldi	r24, 0x01	; 1
 340:	90 e0       	ldi	r25, 0x00	; 0
 342:	ac 01       	movw	r20, r24
 344:	02 c0       	rjmp	.+4      	; 0x34a <DIO_vToggle+0x74>
 346:	44 0f       	add	r20, r20
 348:	55 1f       	adc	r21, r21
 34a:	6a 95       	dec	r22
 34c:	e2 f7       	brpl	.-8      	; 0x346 <DIO_vToggle+0x70>
 34e:	ba 01       	movw	r22, r20
 350:	62 27       	eor	r22, r18
 352:	65 bb       	out	0x15, r22	; 21
		}
		break;
 354:	08 95       	ret
		
		case 'D':
		case 'd':
		{
			TOG_BIT(PORTD,pinnumber);
 356:	22 b3       	in	r18, 0x12	; 18
 358:	81 e0       	ldi	r24, 0x01	; 1
 35a:	90 e0       	ldi	r25, 0x00	; 0
 35c:	ac 01       	movw	r20, r24
 35e:	02 c0       	rjmp	.+4      	; 0x364 <DIO_vToggle+0x8e>
 360:	44 0f       	add	r20, r20
 362:	55 1f       	adc	r21, r21
 364:	6a 95       	dec	r22
 366:	e2 f7       	brpl	.-8      	; 0x360 <DIO_vToggle+0x8a>
 368:	ba 01       	movw	r22, r20
 36a:	62 27       	eor	r22, r18
 36c:	62 bb       	out	0x12, r22	; 18
 36e:	08 95       	ret

00000370 <DIO_u8read>:
	}
}

unsigned char DIO_u8read(unsigned char portname, unsigned char pinnumber)
{
	switch(portname)
 370:	84 34       	cpi	r24, 0x44	; 68
 372:	09 f4       	brne	.+2      	; 0x376 <DIO_u8read+0x6>
 374:	4e c0       	rjmp	.+156    	; 0x412 <DIO_u8read+0xa2>
 376:	85 34       	cpi	r24, 0x45	; 69
 378:	40 f4       	brcc	.+16     	; 0x38a <DIO_u8read+0x1a>
 37a:	82 34       	cpi	r24, 0x42	; 66
 37c:	31 f1       	breq	.+76     	; 0x3ca <DIO_u8read+0x5a>
 37e:	83 34       	cpi	r24, 0x43	; 67
 380:	b0 f5       	brcc	.+108    	; 0x3ee <DIO_u8read+0x7e>
 382:	81 34       	cpi	r24, 0x41	; 65
 384:	09 f0       	breq	.+2      	; 0x388 <DIO_u8read+0x18>
 386:	57 c0       	rjmp	.+174    	; 0x436 <DIO_u8read+0xc6>
 388:	0e c0       	rjmp	.+28     	; 0x3a6 <DIO_u8read+0x36>
 38a:	82 36       	cpi	r24, 0x62	; 98
 38c:	f1 f0       	breq	.+60     	; 0x3ca <DIO_u8read+0x5a>
 38e:	83 36       	cpi	r24, 0x63	; 99
 390:	20 f4       	brcc	.+8      	; 0x39a <DIO_u8read+0x2a>
 392:	81 36       	cpi	r24, 0x61	; 97
 394:	09 f0       	breq	.+2      	; 0x398 <DIO_u8read+0x28>
 396:	4f c0       	rjmp	.+158    	; 0x436 <DIO_u8read+0xc6>
 398:	06 c0       	rjmp	.+12     	; 0x3a6 <DIO_u8read+0x36>
 39a:	83 36       	cpi	r24, 0x63	; 99
 39c:	41 f1       	breq	.+80     	; 0x3ee <DIO_u8read+0x7e>
 39e:	84 36       	cpi	r24, 0x64	; 100
 3a0:	09 f0       	breq	.+2      	; 0x3a4 <DIO_u8read+0x34>
 3a2:	49 c0       	rjmp	.+146    	; 0x436 <DIO_u8read+0xc6>
 3a4:	36 c0       	rjmp	.+108    	; 0x412 <DIO_u8read+0xa2>
	{
		case 'A':
		case 'a':
		{
			return READ_BIT(PINA,pinnumber);
 3a6:	29 b3       	in	r18, 0x19	; 25
 3a8:	81 e0       	ldi	r24, 0x01	; 1
 3aa:	90 e0       	ldi	r25, 0x00	; 0
 3ac:	06 2e       	mov	r0, r22
 3ae:	02 c0       	rjmp	.+4      	; 0x3b4 <DIO_u8read+0x44>
 3b0:	88 0f       	add	r24, r24
 3b2:	99 1f       	adc	r25, r25
 3b4:	0a 94       	dec	r0
 3b6:	e2 f7       	brpl	.-8      	; 0x3b0 <DIO_u8read+0x40>
 3b8:	30 e0       	ldi	r19, 0x00	; 0
 3ba:	82 23       	and	r24, r18
 3bc:	93 23       	and	r25, r19
 3be:	02 c0       	rjmp	.+4      	; 0x3c4 <DIO_u8read+0x54>
 3c0:	95 95       	asr	r25
 3c2:	87 95       	ror	r24
 3c4:	6a 95       	dec	r22
 3c6:	e2 f7       	brpl	.-8      	; 0x3c0 <DIO_u8read+0x50>
 3c8:	08 95       	ret
		break;
		
		case 'B':
		case 'b':
		{
			return READ_BIT(PINB,pinnumber);
 3ca:	26 b3       	in	r18, 0x16	; 22
 3cc:	81 e0       	ldi	r24, 0x01	; 1
 3ce:	90 e0       	ldi	r25, 0x00	; 0
 3d0:	06 2e       	mov	r0, r22
 3d2:	02 c0       	rjmp	.+4      	; 0x3d8 <DIO_u8read+0x68>
 3d4:	88 0f       	add	r24, r24
 3d6:	99 1f       	adc	r25, r25
 3d8:	0a 94       	dec	r0
 3da:	e2 f7       	brpl	.-8      	; 0x3d4 <DIO_u8read+0x64>
 3dc:	30 e0       	ldi	r19, 0x00	; 0
 3de:	82 23       	and	r24, r18
 3e0:	93 23       	and	r25, r19
 3e2:	02 c0       	rjmp	.+4      	; 0x3e8 <DIO_u8read+0x78>
 3e4:	95 95       	asr	r25
 3e6:	87 95       	ror	r24
 3e8:	6a 95       	dec	r22
 3ea:	e2 f7       	brpl	.-8      	; 0x3e4 <DIO_u8read+0x74>
 3ec:	08 95       	ret
		break;
		
		case 'C':
		case 'c':
		{
			return READ_BIT(PINC,pinnumber);
 3ee:	23 b3       	in	r18, 0x13	; 19
 3f0:	81 e0       	ldi	r24, 0x01	; 1
 3f2:	90 e0       	ldi	r25, 0x00	; 0
 3f4:	06 2e       	mov	r0, r22
 3f6:	02 c0       	rjmp	.+4      	; 0x3fc <DIO_u8read+0x8c>
 3f8:	88 0f       	add	r24, r24
 3fa:	99 1f       	adc	r25, r25
 3fc:	0a 94       	dec	r0
 3fe:	e2 f7       	brpl	.-8      	; 0x3f8 <DIO_u8read+0x88>
 400:	30 e0       	ldi	r19, 0x00	; 0
 402:	82 23       	and	r24, r18
 404:	93 23       	and	r25, r19
 406:	02 c0       	rjmp	.+4      	; 0x40c <DIO_u8read+0x9c>
 408:	95 95       	asr	r25
 40a:	87 95       	ror	r24
 40c:	6a 95       	dec	r22
 40e:	e2 f7       	brpl	.-8      	; 0x408 <DIO_u8read+0x98>
 410:	08 95       	ret
		break;
		
		case 'D':
		case 'd':
		{
			return READ_BIT(PIND,pinnumber);
 412:	20 b3       	in	r18, 0x10	; 16
 414:	81 e0       	ldi	r24, 0x01	; 1
 416:	90 e0       	ldi	r25, 0x00	; 0
 418:	06 2e       	mov	r0, r22
 41a:	02 c0       	rjmp	.+4      	; 0x420 <DIO_u8read+0xb0>
 41c:	88 0f       	add	r24, r24
 41e:	99 1f       	adc	r25, r25
 420:	0a 94       	dec	r0
 422:	e2 f7       	brpl	.-8      	; 0x41c <DIO_u8read+0xac>
 424:	30 e0       	ldi	r19, 0x00	; 0
 426:	82 23       	and	r24, r18
 428:	93 23       	and	r25, r19
 42a:	02 c0       	rjmp	.+4      	; 0x430 <DIO_u8read+0xc0>
 42c:	95 95       	asr	r25
 42e:	87 95       	ror	r24
 430:	6a 95       	dec	r22
 432:	e2 f7       	brpl	.-8      	; 0x42c <DIO_u8read+0xbc>
 434:	08 95       	ret
		}
		break;
	}
}
 436:	08 95       	ret

00000438 <DIO_vSETPORTDir>:

void DIO_vSETPORTDir(unsigned char portname, unsigned char direction)
{
	switch(portname)
 438:	84 34       	cpi	r24, 0x44	; 68
 43a:	d9 f0       	breq	.+54     	; 0x472 <DIO_vSETPORTDir+0x3a>
 43c:	85 34       	cpi	r24, 0x45	; 69
 43e:	38 f4       	brcc	.+14     	; 0x44e <DIO_vSETPORTDir+0x16>
 440:	82 34       	cpi	r24, 0x42	; 66
 442:	99 f0       	breq	.+38     	; 0x46a <DIO_vSETPORTDir+0x32>
 444:	83 34       	cpi	r24, 0x43	; 67
 446:	98 f4       	brcc	.+38     	; 0x46e <DIO_vSETPORTDir+0x36>
 448:	81 34       	cpi	r24, 0x41	; 65
 44a:	a1 f4       	brne	.+40     	; 0x474 <DIO_vSETPORTDir+0x3c>
 44c:	0c c0       	rjmp	.+24     	; 0x466 <DIO_vSETPORTDir+0x2e>
 44e:	82 36       	cpi	r24, 0x62	; 98
 450:	61 f0       	breq	.+24     	; 0x46a <DIO_vSETPORTDir+0x32>
 452:	83 36       	cpi	r24, 0x63	; 99
 454:	18 f4       	brcc	.+6      	; 0x45c <DIO_vSETPORTDir+0x24>
 456:	81 36       	cpi	r24, 0x61	; 97
 458:	69 f4       	brne	.+26     	; 0x474 <DIO_vSETPORTDir+0x3c>
 45a:	05 c0       	rjmp	.+10     	; 0x466 <DIO_vSETPORTDir+0x2e>
 45c:	83 36       	cpi	r24, 0x63	; 99
 45e:	39 f0       	breq	.+14     	; 0x46e <DIO_vSETPORTDir+0x36>
 460:	84 36       	cpi	r24, 0x64	; 100
 462:	41 f4       	brne	.+16     	; 0x474 <DIO_vSETPORTDir+0x3c>
 464:	06 c0       	rjmp	.+12     	; 0x472 <DIO_vSETPORTDir+0x3a>
	{
		case 'A':
		case 'a':
		{
			DDRA = direction;
 466:	6a bb       	out	0x1a, r22	; 26
		}
		break;
 468:	08 95       	ret
		
		case 'B':
		case 'b':
		{
			DDRB=direction;
 46a:	67 bb       	out	0x17, r22	; 23
		}
		break;
 46c:	08 95       	ret
		
		case 'C':
		case 'c':
		{
			DDRC=direction;
 46e:	64 bb       	out	0x14, r22	; 20
		}
		break;
 470:	08 95       	ret
		
		case 'D':
		case 'd':
		{
			DDRD=direction;
 472:	61 bb       	out	0x11, r22	; 17
 474:	08 95       	ret

00000476 <DIO_vWritePORT>:
	}
}

void DIO_vWritePORT(unsigned char portname, unsigned char val)
{
	switch(portname)
 476:	84 34       	cpi	r24, 0x44	; 68
 478:	d9 f0       	breq	.+54     	; 0x4b0 <DIO_vWritePORT+0x3a>
 47a:	85 34       	cpi	r24, 0x45	; 69
 47c:	38 f4       	brcc	.+14     	; 0x48c <DIO_vWritePORT+0x16>
 47e:	82 34       	cpi	r24, 0x42	; 66
 480:	99 f0       	breq	.+38     	; 0x4a8 <DIO_vWritePORT+0x32>
 482:	83 34       	cpi	r24, 0x43	; 67
 484:	98 f4       	brcc	.+38     	; 0x4ac <DIO_vWritePORT+0x36>
 486:	81 34       	cpi	r24, 0x41	; 65
 488:	a1 f4       	brne	.+40     	; 0x4b2 <DIO_vWritePORT+0x3c>
 48a:	0c c0       	rjmp	.+24     	; 0x4a4 <DIO_vWritePORT+0x2e>
 48c:	82 36       	cpi	r24, 0x62	; 98
 48e:	61 f0       	breq	.+24     	; 0x4a8 <DIO_vWritePORT+0x32>
 490:	83 36       	cpi	r24, 0x63	; 99
 492:	18 f4       	brcc	.+6      	; 0x49a <DIO_vWritePORT+0x24>
 494:	81 36       	cpi	r24, 0x61	; 97
 496:	69 f4       	brne	.+26     	; 0x4b2 <DIO_vWritePORT+0x3c>
 498:	05 c0       	rjmp	.+10     	; 0x4a4 <DIO_vWritePORT+0x2e>
 49a:	83 36       	cpi	r24, 0x63	; 99
 49c:	39 f0       	breq	.+14     	; 0x4ac <DIO_vWritePORT+0x36>
 49e:	84 36       	cpi	r24, 0x64	; 100
 4a0:	41 f4       	brne	.+16     	; 0x4b2 <DIO_vWritePORT+0x3c>
 4a2:	06 c0       	rjmp	.+12     	; 0x4b0 <DIO_vWritePORT+0x3a>
	{
		case 'A':
		case 'a':
		{
			PORTA=val;
 4a4:	6b bb       	out	0x1b, r22	; 27
		}
		break;
 4a6:	08 95       	ret
		
		case 'B':
		case 'b':
		{
			PORTB=val;
 4a8:	68 bb       	out	0x18, r22	; 24
		}
		break;
 4aa:	08 95       	ret
		
		case 'C':
		case 'c':
		{
			PORTC=val;
 4ac:	65 bb       	out	0x15, r22	; 21
		}
		break;
 4ae:	08 95       	ret
		
		case 'D':
		case 'd':
		{
			PORTD=val;
 4b0:	62 bb       	out	0x12, r22	; 18
 4b2:	08 95       	ret

000004b4 <DIO_vTOGPORT>:
	}
}

void DIO_vTOGPORT(unsigned char portname)
{
	switch(portname)
 4b4:	84 34       	cpi	r24, 0x44	; 68
 4b6:	09 f1       	breq	.+66     	; 0x4fa <DIO_vTOGPORT+0x46>
 4b8:	85 34       	cpi	r24, 0x45	; 69
 4ba:	38 f4       	brcc	.+14     	; 0x4ca <DIO_vTOGPORT+0x16>
 4bc:	82 34       	cpi	r24, 0x42	; 66
 4be:	a9 f0       	breq	.+42     	; 0x4ea <DIO_vTOGPORT+0x36>
 4c0:	83 34       	cpi	r24, 0x43	; 67
 4c2:	b8 f4       	brcc	.+46     	; 0x4f2 <DIO_vTOGPORT+0x3e>
 4c4:	81 34       	cpi	r24, 0x41	; 65
 4c6:	e1 f4       	brne	.+56     	; 0x500 <DIO_vTOGPORT+0x4c>
 4c8:	0c c0       	rjmp	.+24     	; 0x4e2 <DIO_vTOGPORT+0x2e>
 4ca:	82 36       	cpi	r24, 0x62	; 98
 4cc:	71 f0       	breq	.+28     	; 0x4ea <DIO_vTOGPORT+0x36>
 4ce:	83 36       	cpi	r24, 0x63	; 99
 4d0:	18 f4       	brcc	.+6      	; 0x4d8 <DIO_vTOGPORT+0x24>
 4d2:	81 36       	cpi	r24, 0x61	; 97
 4d4:	a9 f4       	brne	.+42     	; 0x500 <DIO_vTOGPORT+0x4c>
 4d6:	05 c0       	rjmp	.+10     	; 0x4e2 <DIO_vTOGPORT+0x2e>
 4d8:	83 36       	cpi	r24, 0x63	; 99
 4da:	59 f0       	breq	.+22     	; 0x4f2 <DIO_vTOGPORT+0x3e>
 4dc:	84 36       	cpi	r24, 0x64	; 100
 4de:	81 f4       	brne	.+32     	; 0x500 <DIO_vTOGPORT+0x4c>
 4e0:	0c c0       	rjmp	.+24     	; 0x4fa <DIO_vTOGPORT+0x46>
	{
		case 'A':
		case 'a':
		{
			PORTA^=0xFF;
 4e2:	8b b3       	in	r24, 0x1b	; 27
 4e4:	80 95       	com	r24
 4e6:	8b bb       	out	0x1b, r24	; 27
		}
		break;
 4e8:	08 95       	ret
		
		case 'B':
		case 'b':
		{
			PORTB^=0xFF;
 4ea:	88 b3       	in	r24, 0x18	; 24
 4ec:	80 95       	com	r24
 4ee:	88 bb       	out	0x18, r24	; 24
		}
		break;
 4f0:	08 95       	ret
		
		case 'C':
		case 'c':
		{
			PORTC^=0xFF;
 4f2:	85 b3       	in	r24, 0x15	; 21
 4f4:	80 95       	com	r24
 4f6:	85 bb       	out	0x15, r24	; 21
		}
		break;
 4f8:	08 95       	ret
		
		case 'D':
		case 'd':
		{
			PORTD^=0xFF;
 4fa:	82 b3       	in	r24, 0x12	; 18
 4fc:	80 95       	com	r24
 4fe:	82 bb       	out	0x12, r24	; 18
 500:	08 95       	ret

00000502 <DIO_u8ReadPort>:
		break;
	}
}
unsigned char DIO_u8ReadPort(unsigned char portname)
{
	switch(portname)
 502:	84 34       	cpi	r24, 0x44	; 68
 504:	d9 f0       	breq	.+54     	; 0x53c <DIO_u8ReadPort+0x3a>
 506:	85 34       	cpi	r24, 0x45	; 69
 508:	38 f4       	brcc	.+14     	; 0x518 <DIO_u8ReadPort+0x16>
 50a:	82 34       	cpi	r24, 0x42	; 66
 50c:	99 f0       	breq	.+38     	; 0x534 <DIO_u8ReadPort+0x32>
 50e:	83 34       	cpi	r24, 0x43	; 67
 510:	98 f4       	brcc	.+38     	; 0x538 <DIO_u8ReadPort+0x36>
 512:	81 34       	cpi	r24, 0x41	; 65
 514:	a9 f4       	brne	.+42     	; 0x540 <DIO_u8ReadPort+0x3e>
 516:	0c c0       	rjmp	.+24     	; 0x530 <DIO_u8ReadPort+0x2e>
 518:	82 36       	cpi	r24, 0x62	; 98
 51a:	61 f0       	breq	.+24     	; 0x534 <DIO_u8ReadPort+0x32>
 51c:	83 36       	cpi	r24, 0x63	; 99
 51e:	18 f4       	brcc	.+6      	; 0x526 <DIO_u8ReadPort+0x24>
 520:	81 36       	cpi	r24, 0x61	; 97
 522:	71 f4       	brne	.+28     	; 0x540 <DIO_u8ReadPort+0x3e>
 524:	05 c0       	rjmp	.+10     	; 0x530 <DIO_u8ReadPort+0x2e>
 526:	83 36       	cpi	r24, 0x63	; 99
 528:	39 f0       	breq	.+14     	; 0x538 <DIO_u8ReadPort+0x36>
 52a:	84 36       	cpi	r24, 0x64	; 100
 52c:	49 f4       	brne	.+18     	; 0x540 <DIO_u8ReadPort+0x3e>
 52e:	06 c0       	rjmp	.+12     	; 0x53c <DIO_u8ReadPort+0x3a>
	{
		case 'A':
		case 'a':
		{
			return PINA;
 530:	89 b3       	in	r24, 0x19	; 25
 532:	08 95       	ret
		break;
		
		case 'B':
		case 'b':
		{
			return PINB;
 534:	86 b3       	in	r24, 0x16	; 22
 536:	08 95       	ret
		break;
		
		case 'C':
		case 'c':
		{
			return PINC;
 538:	83 b3       	in	r24, 0x13	; 19
 53a:	08 95       	ret
		break;
		
		case 'D':
		case 'd':
		{
			return PIND;
 53c:	80 b3       	in	r24, 0x10	; 16
 53e:	08 95       	ret
		}
		break;
	}
}
 540:	08 95       	ret

00000542 <DIO_vWriteHighNibble>:

void DIO_vWriteHighNibble(unsigned char portname, unsigned char val)
{
	val<<=4;
 542:	62 95       	swap	r22
 544:	60 7f       	andi	r22, 0xF0	; 240
	switch (portname)
 546:	84 34       	cpi	r24, 0x44	; 68
 548:	51 f1       	breq	.+84     	; 0x59e <DIO_vWriteHighNibble+0x5c>
 54a:	85 34       	cpi	r24, 0x45	; 69
 54c:	38 f4       	brcc	.+14     	; 0x55c <DIO_vWriteHighNibble+0x1a>
 54e:	82 34       	cpi	r24, 0x42	; 66
 550:	c1 f0       	breq	.+48     	; 0x582 <DIO_vWriteHighNibble+0x40>
 552:	83 34       	cpi	r24, 0x43	; 67
 554:	e8 f4       	brcc	.+58     	; 0x590 <DIO_vWriteHighNibble+0x4e>
 556:	81 34       	cpi	r24, 0x41	; 65
 558:	41 f5       	brne	.+80     	; 0x5aa <DIO_vWriteHighNibble+0x68>
 55a:	0c c0       	rjmp	.+24     	; 0x574 <DIO_vWriteHighNibble+0x32>
 55c:	82 36       	cpi	r24, 0x62	; 98
 55e:	89 f0       	breq	.+34     	; 0x582 <DIO_vWriteHighNibble+0x40>
 560:	83 36       	cpi	r24, 0x63	; 99
 562:	18 f4       	brcc	.+6      	; 0x56a <DIO_vWriteHighNibble+0x28>
 564:	81 36       	cpi	r24, 0x61	; 97
 566:	09 f5       	brne	.+66     	; 0x5aa <DIO_vWriteHighNibble+0x68>
 568:	05 c0       	rjmp	.+10     	; 0x574 <DIO_vWriteHighNibble+0x32>
 56a:	83 36       	cpi	r24, 0x63	; 99
 56c:	89 f0       	breq	.+34     	; 0x590 <DIO_vWriteHighNibble+0x4e>
 56e:	84 36       	cpi	r24, 0x64	; 100
 570:	e1 f4       	brne	.+56     	; 0x5aa <DIO_vWriteHighNibble+0x68>
 572:	15 c0       	rjmp	.+42     	; 0x59e <DIO_vWriteHighNibble+0x5c>
	{
		case 'A':
		case 'a':
		{
			PORTA &= 0x0F; //We must ensure high nibble pins are is deasserted
 574:	8b b3       	in	r24, 0x1b	; 27
 576:	8f 70       	andi	r24, 0x0F	; 15
 578:	8b bb       	out	0x1b, r24	; 27
			PORTA|=val; //we then write the 4 least sig bits on the high nibbole of the port.
 57a:	8b b3       	in	r24, 0x1b	; 27
 57c:	68 2b       	or	r22, r24
 57e:	6b bb       	out	0x1b, r22	; 27
		}
		break;
 580:	08 95       	ret
		
		case 'B':
		case 'b':
		{
			PORTB &= 0x0F;
 582:	88 b3       	in	r24, 0x18	; 24
 584:	8f 70       	andi	r24, 0x0F	; 15
 586:	88 bb       	out	0x18, r24	; 24
			PORTB|=val;
 588:	88 b3       	in	r24, 0x18	; 24
 58a:	68 2b       	or	r22, r24
 58c:	68 bb       	out	0x18, r22	; 24
		}
		break;
 58e:	08 95       	ret
		
		case 'C':
		case 'c':
		{
			PORTC &= 0x0F;
 590:	85 b3       	in	r24, 0x15	; 21
 592:	8f 70       	andi	r24, 0x0F	; 15
 594:	85 bb       	out	0x15, r24	; 21
			PORTC|=val;
 596:	85 b3       	in	r24, 0x15	; 21
 598:	68 2b       	or	r22, r24
 59a:	65 bb       	out	0x15, r22	; 21
		}
		break;
 59c:	08 95       	ret
		
		case 'D':
		case 'd':
		{
			PORTD &= 0x0F;
 59e:	82 b3       	in	r24, 0x12	; 18
 5a0:	8f 70       	andi	r24, 0x0F	; 15
 5a2:	82 bb       	out	0x12, r24	; 18
			PORTD|=val;
 5a4:	82 b3       	in	r24, 0x12	; 18
 5a6:	68 2b       	or	r22, r24
 5a8:	62 bb       	out	0x12, r22	; 18
 5aa:	08 95       	ret

000005ac <DIO_vWriteLowNibble>:
	}
}

void DIO_vWriteLowNibble(unsigned char portname, unsigned char val)
{
	switch (portname)
 5ac:	84 34       	cpi	r24, 0x44	; 68
 5ae:	51 f1       	breq	.+84     	; 0x604 <DIO_vWriteLowNibble+0x58>
 5b0:	85 34       	cpi	r24, 0x45	; 69
 5b2:	38 f4       	brcc	.+14     	; 0x5c2 <DIO_vWriteLowNibble+0x16>
 5b4:	82 34       	cpi	r24, 0x42	; 66
 5b6:	c1 f0       	breq	.+48     	; 0x5e8 <DIO_vWriteLowNibble+0x3c>
 5b8:	83 34       	cpi	r24, 0x43	; 67
 5ba:	e8 f4       	brcc	.+58     	; 0x5f6 <DIO_vWriteLowNibble+0x4a>
 5bc:	81 34       	cpi	r24, 0x41	; 65
 5be:	41 f5       	brne	.+80     	; 0x610 <DIO_vWriteLowNibble+0x64>
 5c0:	0c c0       	rjmp	.+24     	; 0x5da <DIO_vWriteLowNibble+0x2e>
 5c2:	82 36       	cpi	r24, 0x62	; 98
 5c4:	89 f0       	breq	.+34     	; 0x5e8 <DIO_vWriteLowNibble+0x3c>
 5c6:	83 36       	cpi	r24, 0x63	; 99
 5c8:	18 f4       	brcc	.+6      	; 0x5d0 <DIO_vWriteLowNibble+0x24>
 5ca:	81 36       	cpi	r24, 0x61	; 97
 5cc:	09 f5       	brne	.+66     	; 0x610 <DIO_vWriteLowNibble+0x64>
 5ce:	05 c0       	rjmp	.+10     	; 0x5da <DIO_vWriteLowNibble+0x2e>
 5d0:	83 36       	cpi	r24, 0x63	; 99
 5d2:	89 f0       	breq	.+34     	; 0x5f6 <DIO_vWriteLowNibble+0x4a>
 5d4:	84 36       	cpi	r24, 0x64	; 100
 5d6:	e1 f4       	brne	.+56     	; 0x610 <DIO_vWriteLowNibble+0x64>
 5d8:	15 c0       	rjmp	.+42     	; 0x604 <DIO_vWriteLowNibble+0x58>
	{
		case 'A':
		case 'a':
		{
			PORTA &= 0xF0; //We must ensure low nibble pins are is deasserted because we will use or to write our data
 5da:	8b b3       	in	r24, 0x1b	; 27
 5dc:	80 7f       	andi	r24, 0xF0	; 240
 5de:	8b bb       	out	0x1b, r24	; 27
			PORTA|=val; //we then write the 4 least sig bits on the high nibble of the port.
 5e0:	8b b3       	in	r24, 0x1b	; 27
 5e2:	68 2b       	or	r22, r24
 5e4:	6b bb       	out	0x1b, r22	; 27
		}
		break;
 5e6:	08 95       	ret
		
		case 'B':
		case 'b':
		{
			PORTB &= 0xF0;
 5e8:	88 b3       	in	r24, 0x18	; 24
 5ea:	80 7f       	andi	r24, 0xF0	; 240
 5ec:	88 bb       	out	0x18, r24	; 24
			PORTB|=val;
 5ee:	88 b3       	in	r24, 0x18	; 24
 5f0:	68 2b       	or	r22, r24
 5f2:	68 bb       	out	0x18, r22	; 24
		}
		break;
 5f4:	08 95       	ret
		
		case 'C':
		case 'c':
		{
			PORTC &= 0xF0;
 5f6:	85 b3       	in	r24, 0x15	; 21
 5f8:	80 7f       	andi	r24, 0xF0	; 240
 5fa:	85 bb       	out	0x15, r24	; 21
			PORTC|=val;
 5fc:	85 b3       	in	r24, 0x15	; 21
 5fe:	68 2b       	or	r22, r24
 600:	65 bb       	out	0x15, r22	; 21
		}
		break;
 602:	08 95       	ret
		
		case 'D':
		case 'd':
		{
			PORTD &= 0xF0;
 604:	82 b3       	in	r24, 0x12	; 18
 606:	80 7f       	andi	r24, 0xF0	; 240
 608:	82 bb       	out	0x12, r24	; 18
			PORTD|=val;
 60a:	82 b3       	in	r24, 0x12	; 18
 60c:	68 2b       	or	r22, r24
 60e:	62 bb       	out	0x12, r22	; 18
 610:	08 95       	ret

00000612 <DIO_vEnablePullUp>:
	}
}

void DIO_vEnablePullUp(unsigned char portname, unsigned char pinnumber,unsigned char en)
{
	switch(portname)
 612:	84 34       	cpi	r24, 0x44	; 68
 614:	09 f4       	brne	.+2      	; 0x618 <DIO_vEnablePullUp+0x6>
 616:	71 c0       	rjmp	.+226    	; 0x6fa <DIO_vEnablePullUp+0xe8>
 618:	85 34       	cpi	r24, 0x45	; 69
 61a:	48 f4       	brcc	.+18     	; 0x62e <DIO_vEnablePullUp+0x1c>
 61c:	82 34       	cpi	r24, 0x42	; 66
 61e:	99 f1       	breq	.+102    	; 0x686 <DIO_vEnablePullUp+0x74>
 620:	83 34       	cpi	r24, 0x43	; 67
 622:	08 f0       	brcs	.+2      	; 0x626 <DIO_vEnablePullUp+0x14>
 624:	4d c0       	rjmp	.+154    	; 0x6c0 <DIO_vEnablePullUp+0xae>
 626:	81 34       	cpi	r24, 0x41	; 65
 628:	09 f0       	breq	.+2      	; 0x62c <DIO_vEnablePullUp+0x1a>
 62a:	83 c0       	rjmp	.+262    	; 0x732 <DIO_vEnablePullUp+0x120>
 62c:	0f c0       	rjmp	.+30     	; 0x64c <DIO_vEnablePullUp+0x3a>
 62e:	82 36       	cpi	r24, 0x62	; 98
 630:	51 f1       	breq	.+84     	; 0x686 <DIO_vEnablePullUp+0x74>
 632:	83 36       	cpi	r24, 0x63	; 99
 634:	20 f4       	brcc	.+8      	; 0x63e <DIO_vEnablePullUp+0x2c>
 636:	81 36       	cpi	r24, 0x61	; 97
 638:	09 f0       	breq	.+2      	; 0x63c <DIO_vEnablePullUp+0x2a>
 63a:	7b c0       	rjmp	.+246    	; 0x732 <DIO_vEnablePullUp+0x120>
 63c:	07 c0       	rjmp	.+14     	; 0x64c <DIO_vEnablePullUp+0x3a>
 63e:	83 36       	cpi	r24, 0x63	; 99
 640:	09 f4       	brne	.+2      	; 0x644 <DIO_vEnablePullUp+0x32>
 642:	3e c0       	rjmp	.+124    	; 0x6c0 <DIO_vEnablePullUp+0xae>
 644:	84 36       	cpi	r24, 0x64	; 100
 646:	09 f0       	breq	.+2      	; 0x64a <DIO_vEnablePullUp+0x38>
 648:	74 c0       	rjmp	.+232    	; 0x732 <DIO_vEnablePullUp+0x120>
 64a:	57 c0       	rjmp	.+174    	; 0x6fa <DIO_vEnablePullUp+0xe8>
	{
		case 'A':
		case 'a':
		{
			if(en==1) SET_BIT(PORTA,pinnumber);
 64c:	41 30       	cpi	r20, 0x01	; 1
 64e:	69 f4       	brne	.+26     	; 0x66a <DIO_vEnablePullUp+0x58>
 650:	2b b3       	in	r18, 0x1b	; 27
 652:	81 e0       	ldi	r24, 0x01	; 1
 654:	90 e0       	ldi	r25, 0x00	; 0
 656:	ac 01       	movw	r20, r24
 658:	02 c0       	rjmp	.+4      	; 0x65e <DIO_vEnablePullUp+0x4c>
 65a:	44 0f       	add	r20, r20
 65c:	55 1f       	adc	r21, r21
 65e:	6a 95       	dec	r22
 660:	e2 f7       	brpl	.-8      	; 0x65a <DIO_vEnablePullUp+0x48>
 662:	ba 01       	movw	r22, r20
 664:	62 2b       	or	r22, r18
 666:	6b bb       	out	0x1b, r22	; 27
 668:	08 95       	ret
			else CLR_BIT(PORTA,pinnumber);
 66a:	2b b3       	in	r18, 0x1b	; 27
 66c:	81 e0       	ldi	r24, 0x01	; 1
 66e:	90 e0       	ldi	r25, 0x00	; 0
 670:	ac 01       	movw	r20, r24
 672:	02 c0       	rjmp	.+4      	; 0x678 <DIO_vEnablePullUp+0x66>
 674:	44 0f       	add	r20, r20
 676:	55 1f       	adc	r21, r21
 678:	6a 95       	dec	r22
 67a:	e2 f7       	brpl	.-8      	; 0x674 <DIO_vEnablePullUp+0x62>
 67c:	ba 01       	movw	r22, r20
 67e:	60 95       	com	r22
 680:	62 23       	and	r22, r18
 682:	6b bb       	out	0x1b, r22	; 27
 684:	08 95       	ret
		}
		break;
		case 'B':
		case 'b':
		{
			if(en==1) SET_BIT(PORTB,pinnumber);
 686:	41 30       	cpi	r20, 0x01	; 1
 688:	69 f4       	brne	.+26     	; 0x6a4 <DIO_vEnablePullUp+0x92>
 68a:	28 b3       	in	r18, 0x18	; 24
 68c:	81 e0       	ldi	r24, 0x01	; 1
 68e:	90 e0       	ldi	r25, 0x00	; 0
 690:	ac 01       	movw	r20, r24
 692:	02 c0       	rjmp	.+4      	; 0x698 <DIO_vEnablePullUp+0x86>
 694:	44 0f       	add	r20, r20
 696:	55 1f       	adc	r21, r21
 698:	6a 95       	dec	r22
 69a:	e2 f7       	brpl	.-8      	; 0x694 <DIO_vEnablePullUp+0x82>
 69c:	ba 01       	movw	r22, r20
 69e:	62 2b       	or	r22, r18
 6a0:	68 bb       	out	0x18, r22	; 24
 6a2:	08 95       	ret
			else CLR_BIT(PORTB,pinnumber);
 6a4:	28 b3       	in	r18, 0x18	; 24
 6a6:	81 e0       	ldi	r24, 0x01	; 1
 6a8:	90 e0       	ldi	r25, 0x00	; 0
 6aa:	ac 01       	movw	r20, r24
 6ac:	02 c0       	rjmp	.+4      	; 0x6b2 <DIO_vEnablePullUp+0xa0>
 6ae:	44 0f       	add	r20, r20
 6b0:	55 1f       	adc	r21, r21
 6b2:	6a 95       	dec	r22
 6b4:	e2 f7       	brpl	.-8      	; 0x6ae <DIO_vEnablePullUp+0x9c>
 6b6:	ba 01       	movw	r22, r20
 6b8:	60 95       	com	r22
 6ba:	62 23       	and	r22, r18
 6bc:	68 bb       	out	0x18, r22	; 24
 6be:	08 95       	ret
		
		
		case 'C':
		case 'c':
		{
			if(en==1) SET_BIT(PORTC,pinnumber);
 6c0:	41 30       	cpi	r20, 0x01	; 1
 6c2:	69 f4       	brne	.+26     	; 0x6de <DIO_vEnablePullUp+0xcc>
 6c4:	25 b3       	in	r18, 0x15	; 21
 6c6:	81 e0       	ldi	r24, 0x01	; 1
 6c8:	90 e0       	ldi	r25, 0x00	; 0
 6ca:	ac 01       	movw	r20, r24
 6cc:	02 c0       	rjmp	.+4      	; 0x6d2 <DIO_vEnablePullUp+0xc0>
 6ce:	44 0f       	add	r20, r20
 6d0:	55 1f       	adc	r21, r21
 6d2:	6a 95       	dec	r22
 6d4:	e2 f7       	brpl	.-8      	; 0x6ce <DIO_vEnablePullUp+0xbc>
 6d6:	ba 01       	movw	r22, r20
 6d8:	62 2b       	or	r22, r18
 6da:	65 bb       	out	0x15, r22	; 21
 6dc:	08 95       	ret
			else CLR_BIT(PORTC,pinnumber);
 6de:	25 b3       	in	r18, 0x15	; 21
 6e0:	81 e0       	ldi	r24, 0x01	; 1
 6e2:	90 e0       	ldi	r25, 0x00	; 0
 6e4:	ac 01       	movw	r20, r24
 6e6:	02 c0       	rjmp	.+4      	; 0x6ec <DIO_vEnablePullUp+0xda>
 6e8:	44 0f       	add	r20, r20
 6ea:	55 1f       	adc	r21, r21
 6ec:	6a 95       	dec	r22
 6ee:	e2 f7       	brpl	.-8      	; 0x6e8 <DIO_vEnablePullUp+0xd6>
 6f0:	ba 01       	movw	r22, r20
 6f2:	60 95       	com	r22
 6f4:	62 23       	and	r22, r18
 6f6:	65 bb       	out	0x15, r22	; 21
 6f8:	08 95       	ret
		
		
		case 'D':
		case 'd':
		{
			if(en==1) SET_BIT(PORTD,pinnumber);
 6fa:	41 30       	cpi	r20, 0x01	; 1
 6fc:	69 f4       	brne	.+26     	; 0x718 <DIO_vEnablePullUp+0x106>
 6fe:	22 b3       	in	r18, 0x12	; 18
 700:	81 e0       	ldi	r24, 0x01	; 1
 702:	90 e0       	ldi	r25, 0x00	; 0
 704:	ac 01       	movw	r20, r24
 706:	02 c0       	rjmp	.+4      	; 0x70c <DIO_vEnablePullUp+0xfa>
 708:	44 0f       	add	r20, r20
 70a:	55 1f       	adc	r21, r21
 70c:	6a 95       	dec	r22
 70e:	e2 f7       	brpl	.-8      	; 0x708 <DIO_vEnablePullUp+0xf6>
 710:	ba 01       	movw	r22, r20
 712:	62 2b       	or	r22, r18
 714:	62 bb       	out	0x12, r22	; 18
 716:	08 95       	ret
			else CLR_BIT(PORTD,pinnumber);
 718:	22 b3       	in	r18, 0x12	; 18
 71a:	81 e0       	ldi	r24, 0x01	; 1
 71c:	90 e0       	ldi	r25, 0x00	; 0
 71e:	ac 01       	movw	r20, r24
 720:	02 c0       	rjmp	.+4      	; 0x726 <DIO_vEnablePullUp+0x114>
 722:	44 0f       	add	r20, r20
 724:	55 1f       	adc	r21, r21
 726:	6a 95       	dec	r22
 728:	e2 f7       	brpl	.-8      	; 0x722 <DIO_vEnablePullUp+0x110>
 72a:	ba 01       	movw	r22, r20
 72c:	60 95       	com	r22
 72e:	62 23       	and	r22, r18
 730:	62 bb       	out	0x12, r22	; 18
 732:	08 95       	ret

00000734 <EEPROM_vWrite>:
#include "std_macros.h"

void EEPROM_vWrite(unsigned short address, unsigned char data)
{
	//setting up address register;
	EEARL=(char)address;
 734:	8e bb       	out	0x1e, r24	; 30
	EEARH=(char)(address>>8);
 736:	9f bb       	out	0x1f, r25	; 31
	//setting up data register
	EEDR=data;
 738:	6d bb       	out	0x1d, r22	; 29
	//Assert EEMWE
	SET_BIT(EECR,EEMWE);
 73a:	e2 9a       	sbi	0x1c, 2	; 28
	//Start writing by asserting EEWE
	SET_BIT(EECR,EEWE);
 73c:	e1 9a       	sbi	0x1c, 1	; 28
	//loop until write is complete
	while(READ_BIT(EECR,EEWE)==1);
 73e:	e1 99       	sbic	0x1c, 1	; 28
 740:	fe cf       	rjmp	.-4      	; 0x73e <EEPROM_vWrite+0xa>
}
 742:	08 95       	ret

00000744 <EEPROM_u8Read>:

unsigned char EEPROM_u8Read(unsigned short address)
{
	EEARL=(char)address;
 744:	8e bb       	out	0x1e, r24	; 30
	EEARH=(char)(address>>8);
 746:	9f bb       	out	0x1f, r25	; 31
	
	SET_BIT(EECR,EERE);
 748:	e0 9a       	sbi	0x1c, 0	; 28
	
	return EEDR;
 74a:	8d b3       	in	r24, 0x1d	; 29
 74c:	08 95       	ret

0000074e <keypad_vInit>:
#include "DIO.h"
#include "keypad_config.h"

void keypad_vInit(void)
{
	DIO_vSETPORTDir(KPORT,0x0F); //P7 to P4 are input
 74e:	83 e4       	ldi	r24, 0x43	; 67
 750:	6f e0       	ldi	r22, 0x0F	; 15
 752:	0e 94 1c 02 	call	0x438	; 0x438 <DIO_vSETPORTDir>
	DIO_vEnablePullUp(KPORT,7,1);
 756:	83 e4       	ldi	r24, 0x43	; 67
 758:	67 e0       	ldi	r22, 0x07	; 7
 75a:	41 e0       	ldi	r20, 0x01	; 1
 75c:	0e 94 09 03 	call	0x612	; 0x612 <DIO_vEnablePullUp>
	DIO_vEnablePullUp(KPORT,6,1);
 760:	83 e4       	ldi	r24, 0x43	; 67
 762:	66 e0       	ldi	r22, 0x06	; 6
 764:	41 e0       	ldi	r20, 0x01	; 1
 766:	0e 94 09 03 	call	0x612	; 0x612 <DIO_vEnablePullUp>
	DIO_vEnablePullUp(KPORT,5,1);
 76a:	83 e4       	ldi	r24, 0x43	; 67
 76c:	65 e0       	ldi	r22, 0x05	; 5
 76e:	41 e0       	ldi	r20, 0x01	; 1
 770:	0e 94 09 03 	call	0x612	; 0x612 <DIO_vEnablePullUp>
	DIO_vEnablePullUp(KPORT,4,1);
 774:	83 e4       	ldi	r24, 0x43	; 67
 776:	64 e0       	ldi	r22, 0x04	; 4
 778:	41 e0       	ldi	r20, 0x01	; 1
 77a:	0e 94 09 03 	call	0x612	; 0x612 <DIO_vEnablePullUp>
}
 77e:	08 95       	ret

00000780 <keypad_u8read>:

unsigned char keypad_u8read(void)
{
 780:	0f 93       	push	r16
 782:	1f 93       	push	r17
 784:	cf 93       	push	r28
 786:	df 93       	push	r29
 788:	cd b7       	in	r28, 0x3d	; 61
 78a:	de b7       	in	r29, 0x3e	; 62
 78c:	60 97       	sbiw	r28, 0x10	; 16
 78e:	0f b6       	in	r0, 0x3f	; 63
 790:	f8 94       	cli
 792:	de bf       	out	0x3e, r29	; 62
 794:	0f be       	out	0x3f, r0	; 63
 796:	cd bf       	out	0x3d, r28	; 61
	unsigned char ascii[4][4] = {
 798:	de 01       	movw	r26, r28
 79a:	11 96       	adiw	r26, 0x01	; 1
 79c:	e0 e6       	ldi	r30, 0x60	; 96
 79e:	f0 e0       	ldi	r31, 0x00	; 0
 7a0:	80 e1       	ldi	r24, 0x10	; 16
 7a2:	01 90       	ld	r0, Z+
 7a4:	0d 92       	st	X+, r0
 7a6:	81 50       	subi	r24, 0x01	; 1
 7a8:	e1 f7       	brne	.-8      	; 0x7a2 <keypad_u8read+0x22>
								{'A','0','=','+'}
												};
	char row,col,x;
	char return_value=0xFF;
	
	for(row=0;row<=3;row++)
 7aa:	00 e0       	ldi	r16, 0x00	; 0
	{
		DIO_vWriteLowNibble(KPORT,0xFF);
 7ac:	83 e4       	ldi	r24, 0x43	; 67
 7ae:	6f ef       	ldi	r22, 0xFF	; 255
 7b0:	0e 94 d6 02 	call	0x5ac	; 0x5ac <DIO_vWriteLowNibble>
		DIO_vWrite(KPORT,row,0); //this is output, so i write 0 on the row i want to start reading from pins(0,1,2,3)==>rows(0.,1,2,3)
 7b4:	83 e4       	ldi	r24, 0x43	; 67
 7b6:	60 2f       	mov	r22, r16
 7b8:	40 e0       	ldi	r20, 0x00	; 0
 7ba:	0e 94 da 00 	call	0x1b4	; 0x1b4 <DIO_vWrite>
		for(col=0;col<=3;col++)
 7be:	10 e0       	ldi	r17, 0x00	; 0
	DIO_vEnablePullUp(KPORT,6,1);
	DIO_vEnablePullUp(KPORT,5,1);
	DIO_vEnablePullUp(KPORT,4,1);
}

unsigned char keypad_u8read(void)
 7c0:	61 2f       	mov	r22, r17
 7c2:	6c 5f       	subi	r22, 0xFC	; 252
	{
		DIO_vWriteLowNibble(KPORT,0xFF);
		DIO_vWrite(KPORT,row,0); //this is output, so i write 0 on the row i want to start reading from pins(0,1,2,3)==>rows(0.,1,2,3)
		for(col=0;col<=3;col++)
		{
			x=DIO_u8read(KPORT,col+4);//this is input so i iterate on pins(4,5,6,7)===>col(0,1,2,3) to see if one is pushed 
 7c4:	83 e4       	ldi	r24, 0x43	; 67
 7c6:	0e 94 b8 01 	call	0x370	; 0x370 <DIO_u8read>
			if(x==0)
 7ca:	88 23       	and	r24, r24
 7cc:	61 f4       	brne	.+24     	; 0x7e6 <keypad_u8read+0x66>
			{
				return_value=ascii[row][col];
 7ce:	e0 2f       	mov	r30, r16
 7d0:	f0 e0       	ldi	r31, 0x00	; 0
 7d2:	ee 0f       	add	r30, r30
 7d4:	ff 1f       	adc	r31, r31
 7d6:	ee 0f       	add	r30, r30
 7d8:	ff 1f       	adc	r31, r31
 7da:	e1 0f       	add	r30, r17
 7dc:	f1 1d       	adc	r31, r1
 7de:	ec 0f       	add	r30, r28
 7e0:	fd 1f       	adc	r31, r29
 7e2:	81 81       	ldd	r24, Z+1	; 0x01
 7e4:	04 c0       	rjmp	.+8      	; 0x7ee <keypad_u8read+0x6e>
	
	for(row=0;row<=3;row++)
	{
		DIO_vWriteLowNibble(KPORT,0xFF);
		DIO_vWrite(KPORT,row,0); //this is output, so i write 0 on the row i want to start reading from pins(0,1,2,3)==>rows(0.,1,2,3)
		for(col=0;col<=3;col++)
 7e6:	1f 5f       	subi	r17, 0xFF	; 255
 7e8:	14 30       	cpi	r17, 0x04	; 4
 7ea:	51 f7       	brne	.-44     	; 0x7c0 <keypad_u8read+0x40>
 7ec:	0b c0       	rjmp	.+22     	; 0x804 <keypad_u8read+0x84>
			}
		}
		if(x==0) break;
	}
	return return_value;
 7ee:	60 96       	adiw	r28, 0x10	; 16
 7f0:	0f b6       	in	r0, 0x3f	; 63
 7f2:	f8 94       	cli
 7f4:	de bf       	out	0x3e, r29	; 62
 7f6:	0f be       	out	0x3f, r0	; 63
 7f8:	cd bf       	out	0x3d, r28	; 61
 7fa:	df 91       	pop	r29
 7fc:	cf 91       	pop	r28
 7fe:	1f 91       	pop	r17
 800:	0f 91       	pop	r16
 802:	08 95       	ret
								{'A','0','=','+'}
												};
	char row,col,x;
	char return_value=0xFF;
	
	for(row=0;row<=3;row++)
 804:	0f 5f       	subi	r16, 0xFF	; 255
 806:	04 30       	cpi	r16, 0x04	; 4
 808:	89 f6       	brne	.-94     	; 0x7ac <keypad_u8read+0x2c>
 80a:	8f ef       	ldi	r24, 0xFF	; 255
 80c:	f0 cf       	rjmp	.-32     	; 0x7ee <keypad_u8read+0x6e>

0000080e <peekaboo>:
}


static void peekaboo(void)
{
	DIO_vWrite(CTRL_PORT,EN,1);
 80e:	82 e4       	ldi	r24, 0x42	; 66
 810:	90 e0       	ldi	r25, 0x00	; 0
 812:	60 e0       	ldi	r22, 0x00	; 0
 814:	70 e0       	ldi	r23, 0x00	; 0
 816:	41 e0       	ldi	r20, 0x01	; 1
 818:	50 e0       	ldi	r21, 0x00	; 0
 81a:	0e 94 da 00 	call	0x1b4	; 0x1b4 <DIO_vWrite>
	#else
		//round up by default
		__ticks_dc = (uint32_t)(ceil(fabs(__tmp)));
	#endif

	__builtin_avr_delay_cycles(__ticks_dc);
 81e:	83 ef       	ldi	r24, 0xF3	; 243
 820:	91 e0       	ldi	r25, 0x01	; 1
 822:	01 97       	sbiw	r24, 0x01	; 1
 824:	f1 f7       	brne	.-4      	; 0x822 <peekaboo+0x14>
 826:	00 c0       	rjmp	.+0      	; 0x828 <peekaboo+0x1a>
 828:	00 00       	nop
	_delay_ms(2);
	DIO_vWrite(CTRL_PORT,EN,0);
 82a:	82 e4       	ldi	r24, 0x42	; 66
 82c:	90 e0       	ldi	r25, 0x00	; 0
 82e:	60 e0       	ldi	r22, 0x00	; 0
 830:	70 e0       	ldi	r23, 0x00	; 0
 832:	40 e0       	ldi	r20, 0x00	; 0
 834:	50 e0       	ldi	r21, 0x00	; 0
 836:	0e 94 da 00 	call	0x1b4	; 0x1b4 <DIO_vWrite>
 83a:	83 ef       	ldi	r24, 0xF3	; 243
 83c:	91 e0       	ldi	r25, 0x01	; 1
 83e:	01 97       	sbiw	r24, 0x01	; 1
 840:	f1 f7       	brne	.-4      	; 0x83e <peekaboo+0x30>
 842:	00 c0       	rjmp	.+0      	; 0x844 <peekaboo+0x36>
 844:	00 00       	nop
	_delay_ms(2);
}
 846:	08 95       	ret

00000848 <LCD_vSend_cmd>:

void LCD_vSend_cmd(char cmd)
{
 848:	cf 93       	push	r28
 84a:	c8 2f       	mov	r28, r24
	DIO_vWritePORT(LCD_PORT,cmd);
	DIO_vWrite(CTRL_PORT,RS,0);
	peekaboo();
	_delay_ms(1);
	#elif defined FOUR_BITS_MODE
	DIO_vWriteHighNibble(LCD_PORT,(cmd>>4));
 84c:	68 2f       	mov	r22, r24
 84e:	62 95       	swap	r22
 850:	6f 70       	andi	r22, 0x0F	; 15
 852:	81 e4       	ldi	r24, 0x41	; 65
 854:	90 e0       	ldi	r25, 0x00	; 0
 856:	70 e0       	ldi	r23, 0x00	; 0
 858:	0e 94 a1 02 	call	0x542	; 0x542 <DIO_vWriteHighNibble>
	DIO_vWrite(CTRL_PORT,RS,0);
 85c:	82 e4       	ldi	r24, 0x42	; 66
 85e:	90 e0       	ldi	r25, 0x00	; 0
 860:	62 e0       	ldi	r22, 0x02	; 2
 862:	70 e0       	ldi	r23, 0x00	; 0
 864:	40 e0       	ldi	r20, 0x00	; 0
 866:	50 e0       	ldi	r21, 0x00	; 0
 868:	0e 94 da 00 	call	0x1b4	; 0x1b4 <DIO_vWrite>
	peekaboo();
 86c:	0e 94 07 04 	call	0x80e	; 0x80e <peekaboo>
	DIO_vWriteHighNibble(LCD_PORT,cmd);
 870:	81 e4       	ldi	r24, 0x41	; 65
 872:	90 e0       	ldi	r25, 0x00	; 0
 874:	6c 2f       	mov	r22, r28
 876:	70 e0       	ldi	r23, 0x00	; 0
 878:	0e 94 a1 02 	call	0x542	; 0x542 <DIO_vWriteHighNibble>
	DIO_vWrite(CTRL_PORT,RS,0);
 87c:	82 e4       	ldi	r24, 0x42	; 66
 87e:	90 e0       	ldi	r25, 0x00	; 0
 880:	62 e0       	ldi	r22, 0x02	; 2
 882:	70 e0       	ldi	r23, 0x00	; 0
 884:	40 e0       	ldi	r20, 0x00	; 0
 886:	50 e0       	ldi	r21, 0x00	; 0
 888:	0e 94 da 00 	call	0x1b4	; 0x1b4 <DIO_vWrite>
	peekaboo();
 88c:	0e 94 07 04 	call	0x80e	; 0x80e <peekaboo>
 890:	89 ef       	ldi	r24, 0xF9	; 249
 892:	90 e0       	ldi	r25, 0x00	; 0
 894:	01 97       	sbiw	r24, 0x01	; 1
 896:	f1 f7       	brne	.-4      	; 0x894 <__stack+0x35>
 898:	00 c0       	rjmp	.+0      	; 0x89a <__stack+0x3b>
 89a:	00 00       	nop
	#endif
	_delay_ms(1);
	
}
 89c:	cf 91       	pop	r28
 89e:	08 95       	ret

000008a0 <LCD_vInit>:
	LCD_vSend_cmd(CLR_SCREEN);
	_delay_ms(10);
	LCD_vSend_cmd(ENTRY_MODE);
	_delay_ms(1);
	#elif defined FOUR_BITS_MODE
	DIO_vSetPinDir(LCD_PORT,4,1);
 8a0:	81 e4       	ldi	r24, 0x41	; 65
 8a2:	90 e0       	ldi	r25, 0x00	; 0
 8a4:	64 e0       	ldi	r22, 0x04	; 4
 8a6:	70 e0       	ldi	r23, 0x00	; 0
 8a8:	41 e0       	ldi	r20, 0x01	; 1
 8aa:	50 e0       	ldi	r21, 0x00	; 0
 8ac:	0e 94 49 00 	call	0x92	; 0x92 <DIO_vSetPinDir>
	DIO_vSetPinDir(LCD_PORT,5,1);
 8b0:	81 e4       	ldi	r24, 0x41	; 65
 8b2:	90 e0       	ldi	r25, 0x00	; 0
 8b4:	65 e0       	ldi	r22, 0x05	; 5
 8b6:	70 e0       	ldi	r23, 0x00	; 0
 8b8:	41 e0       	ldi	r20, 0x01	; 1
 8ba:	50 e0       	ldi	r21, 0x00	; 0
 8bc:	0e 94 49 00 	call	0x92	; 0x92 <DIO_vSetPinDir>
	DIO_vSetPinDir(LCD_PORT,6,1);
 8c0:	81 e4       	ldi	r24, 0x41	; 65
 8c2:	90 e0       	ldi	r25, 0x00	; 0
 8c4:	66 e0       	ldi	r22, 0x06	; 6
 8c6:	70 e0       	ldi	r23, 0x00	; 0
 8c8:	41 e0       	ldi	r20, 0x01	; 1
 8ca:	50 e0       	ldi	r21, 0x00	; 0
 8cc:	0e 94 49 00 	call	0x92	; 0x92 <DIO_vSetPinDir>
	DIO_vSetPinDir(LCD_PORT,7,1);
 8d0:	81 e4       	ldi	r24, 0x41	; 65
 8d2:	90 e0       	ldi	r25, 0x00	; 0
 8d4:	67 e0       	ldi	r22, 0x07	; 7
 8d6:	70 e0       	ldi	r23, 0x00	; 0
 8d8:	41 e0       	ldi	r20, 0x01	; 1
 8da:	50 e0       	ldi	r21, 0x00	; 0
 8dc:	0e 94 49 00 	call	0x92	; 0x92 <DIO_vSetPinDir>
	DIO_vSetPinDir(CTRL_PORT,EN,1);
 8e0:	82 e4       	ldi	r24, 0x42	; 66
 8e2:	90 e0       	ldi	r25, 0x00	; 0
 8e4:	60 e0       	ldi	r22, 0x00	; 0
 8e6:	70 e0       	ldi	r23, 0x00	; 0
 8e8:	41 e0       	ldi	r20, 0x01	; 1
 8ea:	50 e0       	ldi	r21, 0x00	; 0
 8ec:	0e 94 49 00 	call	0x92	; 0x92 <DIO_vSetPinDir>
	DIO_vSetPinDir(CTRL_PORT,RS,1);
 8f0:	82 e4       	ldi	r24, 0x42	; 66
 8f2:	90 e0       	ldi	r25, 0x00	; 0
 8f4:	62 e0       	ldi	r22, 0x02	; 2
 8f6:	70 e0       	ldi	r23, 0x00	; 0
 8f8:	41 e0       	ldi	r20, 0x01	; 1
 8fa:	50 e0       	ldi	r21, 0x00	; 0
 8fc:	0e 94 49 00 	call	0x92	; 0x92 <DIO_vSetPinDir>
	DIO_vSetPinDir(CTRL_PORT,RW,1);
 900:	82 e4       	ldi	r24, 0x42	; 66
 902:	90 e0       	ldi	r25, 0x00	; 0
 904:	61 e0       	ldi	r22, 0x01	; 1
 906:	70 e0       	ldi	r23, 0x00	; 0
 908:	41 e0       	ldi	r20, 0x01	; 1
 90a:	50 e0       	ldi	r21, 0x00	; 0
 90c:	0e 94 49 00 	call	0x92	; 0x92 <DIO_vSetPinDir>
	DIO_vWrite(CTRL_PORT,RW,0);
 910:	82 e4       	ldi	r24, 0x42	; 66
 912:	90 e0       	ldi	r25, 0x00	; 0
 914:	61 e0       	ldi	r22, 0x01	; 1
 916:	70 e0       	ldi	r23, 0x00	; 0
 918:	40 e0       	ldi	r20, 0x00	; 0
 91a:	50 e0       	ldi	r21, 0x00	; 0
 91c:	0e 94 da 00 	call	0x1b4	; 0x1b4 <DIO_vWrite>
	LCD_vSend_cmd(RETURN_HOME);
 920:	82 e0       	ldi	r24, 0x02	; 2
 922:	0e 94 24 04 	call	0x848	; 0x848 <LCD_vSend_cmd>
 926:	83 ec       	ldi	r24, 0xC3	; 195
 928:	99 e0       	ldi	r25, 0x09	; 9
 92a:	01 97       	sbiw	r24, 0x01	; 1
 92c:	f1 f7       	brne	.-4      	; 0x92a <LCD_vInit+0x8a>
 92e:	00 c0       	rjmp	.+0      	; 0x930 <LCD_vInit+0x90>
 930:	00 00       	nop
	_delay_ms(10);
	LCD_vSend_cmd(FOUR_BITS);
 932:	88 e2       	ldi	r24, 0x28	; 40
 934:	0e 94 24 04 	call	0x848	; 0x848 <LCD_vSend_cmd>
 938:	89 ef       	ldi	r24, 0xF9	; 249
 93a:	90 e0       	ldi	r25, 0x00	; 0
 93c:	01 97       	sbiw	r24, 0x01	; 1
 93e:	f1 f7       	brne	.-4      	; 0x93c <LCD_vInit+0x9c>
 940:	00 c0       	rjmp	.+0      	; 0x942 <LCD_vInit+0xa2>
 942:	00 00       	nop
	_delay_ms(1);
	LCD_vSend_cmd(CURSOR_ON_DISPLAY_ON);
 944:	8e e0       	ldi	r24, 0x0E	; 14
 946:	0e 94 24 04 	call	0x848	; 0x848 <LCD_vSend_cmd>
 94a:	89 ef       	ldi	r24, 0xF9	; 249
 94c:	90 e0       	ldi	r25, 0x00	; 0
 94e:	01 97       	sbiw	r24, 0x01	; 1
 950:	f1 f7       	brne	.-4      	; 0x94e <LCD_vInit+0xae>
 952:	00 c0       	rjmp	.+0      	; 0x954 <LCD_vInit+0xb4>
 954:	00 00       	nop
	_delay_ms(1);
	LCD_vSend_cmd(CLR_SCREEN);
 956:	81 e0       	ldi	r24, 0x01	; 1
 958:	0e 94 24 04 	call	0x848	; 0x848 <LCD_vSend_cmd>
 95c:	83 ec       	ldi	r24, 0xC3	; 195
 95e:	99 e0       	ldi	r25, 0x09	; 9
 960:	01 97       	sbiw	r24, 0x01	; 1
 962:	f1 f7       	brne	.-4      	; 0x960 <LCD_vInit+0xc0>
 964:	00 c0       	rjmp	.+0      	; 0x966 <LCD_vInit+0xc6>
 966:	00 00       	nop
	_delay_ms(10);
	LCD_vSend_cmd(ENTRY_MODE);
 968:	86 e0       	ldi	r24, 0x06	; 6
 96a:	0e 94 24 04 	call	0x848	; 0x848 <LCD_vSend_cmd>
 96e:	89 ef       	ldi	r24, 0xF9	; 249
 970:	90 e0       	ldi	r25, 0x00	; 0
 972:	01 97       	sbiw	r24, 0x01	; 1
 974:	f1 f7       	brne	.-4      	; 0x972 <LCD_vInit+0xd2>
 976:	00 c0       	rjmp	.+0      	; 0x978 <LCD_vInit+0xd8>
 978:	00 00       	nop
	_delay_ms(1);
	#endif
}
 97a:	08 95       	ret

0000097c <LCD_vSend_char>:
	_delay_ms(1);
	
}

void LCD_vSend_char(char chr)
{
 97c:	cf 93       	push	r28
 97e:	c8 2f       	mov	r28, r24
	DIO_vWritePORT(LCD_PORT,chr);
	DIO_vWrite(CTRL_PORT,RS,1);
	peekaboo();
	_delay_ms(1);
	#elif defined FOUR_BITS_MODE
	DIO_vWriteHighNibble(LCD_PORT,(chr>>4));
 980:	68 2f       	mov	r22, r24
 982:	62 95       	swap	r22
 984:	6f 70       	andi	r22, 0x0F	; 15
 986:	81 e4       	ldi	r24, 0x41	; 65
 988:	90 e0       	ldi	r25, 0x00	; 0
 98a:	70 e0       	ldi	r23, 0x00	; 0
 98c:	0e 94 a1 02 	call	0x542	; 0x542 <DIO_vWriteHighNibble>
	DIO_vWrite(CTRL_PORT,RS,1);
 990:	82 e4       	ldi	r24, 0x42	; 66
 992:	90 e0       	ldi	r25, 0x00	; 0
 994:	62 e0       	ldi	r22, 0x02	; 2
 996:	70 e0       	ldi	r23, 0x00	; 0
 998:	41 e0       	ldi	r20, 0x01	; 1
 99a:	50 e0       	ldi	r21, 0x00	; 0
 99c:	0e 94 da 00 	call	0x1b4	; 0x1b4 <DIO_vWrite>
	peekaboo();
 9a0:	0e 94 07 04 	call	0x80e	; 0x80e <peekaboo>
	DIO_vWriteHighNibble(LCD_PORT,chr);
 9a4:	81 e4       	ldi	r24, 0x41	; 65
 9a6:	90 e0       	ldi	r25, 0x00	; 0
 9a8:	6c 2f       	mov	r22, r28
 9aa:	70 e0       	ldi	r23, 0x00	; 0
 9ac:	0e 94 a1 02 	call	0x542	; 0x542 <DIO_vWriteHighNibble>
	DIO_vWrite(CTRL_PORT,RS,1);
 9b0:	82 e4       	ldi	r24, 0x42	; 66
 9b2:	90 e0       	ldi	r25, 0x00	; 0
 9b4:	62 e0       	ldi	r22, 0x02	; 2
 9b6:	70 e0       	ldi	r23, 0x00	; 0
 9b8:	41 e0       	ldi	r20, 0x01	; 1
 9ba:	50 e0       	ldi	r21, 0x00	; 0
 9bc:	0e 94 da 00 	call	0x1b4	; 0x1b4 <DIO_vWrite>
	peekaboo();
 9c0:	0e 94 07 04 	call	0x80e	; 0x80e <peekaboo>
	#endif
}
 9c4:	cf 91       	pop	r28
 9c6:	08 95       	ret

000009c8 <LCD_vSend_string>:

void LCD_vSend_string(char *data)
{
 9c8:	cf 93       	push	r28
 9ca:	df 93       	push	r29
 9cc:	ec 01       	movw	r28, r24
	while((*data)!='\0')
 9ce:	88 81       	ld	r24, Y
 9d0:	88 23       	and	r24, r24
 9d2:	31 f0       	breq	.+12     	; 0x9e0 <LCD_vSend_string+0x18>
	DIO_vWrite(CTRL_PORT,RS,1);
	peekaboo();
	#endif
}

void LCD_vSend_string(char *data)
 9d4:	21 96       	adiw	r28, 0x01	; 1
{
	while((*data)!='\0')
	{
		LCD_vSend_char(*data);
 9d6:	0e 94 be 04 	call	0x97c	; 0x97c <LCD_vSend_char>
	#endif
}

void LCD_vSend_string(char *data)
{
	while((*data)!='\0')
 9da:	89 91       	ld	r24, Y+
 9dc:	88 23       	and	r24, r24
 9de:	d9 f7       	brne	.-10     	; 0x9d6 <LCD_vSend_string+0xe>
	{
		LCD_vSend_char(*data);
		data++;
	}
}
 9e0:	df 91       	pop	r29
 9e2:	cf 91       	pop	r28
 9e4:	08 95       	ret

000009e6 <LCD_clearscreen>:

void LCD_clearscreen(void)
{
	LCD_vSend_cmd(CLR_SCREEN);
 9e6:	81 e0       	ldi	r24, 0x01	; 1
 9e8:	0e 94 24 04 	call	0x848	; 0x848 <LCD_vSend_cmd>
 9ec:	83 ec       	ldi	r24, 0xC3	; 195
 9ee:	99 e0       	ldi	r25, 0x09	; 9
 9f0:	01 97       	sbiw	r24, 0x01	; 1
 9f2:	f1 f7       	brne	.-4      	; 0x9f0 <LCD_clearscreen+0xa>
 9f4:	00 c0       	rjmp	.+0      	; 0x9f6 <LCD_clearscreen+0x10>
 9f6:	00 00       	nop
	_delay_ms(10);
}
 9f8:	08 95       	ret

000009fa <LCD_movecursor>:

void LCD_movecursor(char row, char column)
{
	char pos=0;
	if(row==1)
 9fa:	81 30       	cpi	r24, 0x01	; 1
 9fc:	19 f4       	brne	.+6      	; 0xa04 <LCD_movecursor+0xa>
	{
		pos=(0x80)+column-1;
 9fe:	86 2f       	mov	r24, r22
 a00:	81 58       	subi	r24, 0x81	; 129
 a02:	06 c0       	rjmp	.+12     	; 0xa10 <LCD_movecursor+0x16>
	}
	else if(row==2)
 a04:	82 30       	cpi	r24, 0x02	; 2
 a06:	19 f4       	brne	.+6      	; 0xa0e <LCD_movecursor+0x14>
	{
		pos=(0xC0)+column-1;
 a08:	86 2f       	mov	r24, r22
 a0a:	81 54       	subi	r24, 0x41	; 65
 a0c:	01 c0       	rjmp	.+2      	; 0xa10 <LCD_movecursor+0x16>
	}
	else
	{
		pos=0x80;
 a0e:	80 e8       	ldi	r24, 0x80	; 128
	}
	LCD_vSend_cmd(pos);
 a10:	0e 94 24 04 	call	0x848	; 0x848 <LCD_vSend_cmd>
 a14:	89 ef       	ldi	r24, 0xF9	; 249
 a16:	90 e0       	ldi	r25, 0x00	; 0
 a18:	01 97       	sbiw	r24, 0x01	; 1
 a1a:	f1 f7       	brne	.-4      	; 0xa18 <LCD_movecursor+0x1e>
 a1c:	00 c0       	rjmp	.+0      	; 0xa1e <LCD_movecursor+0x24>
 a1e:	00 00       	nop
	_delay_ms(1);
}
 a20:	08 95       	ret

00000a22 <set_password>:
	}
	EEPROM_vWrite(200,0x00);
}
*/
void set_password(void)
{
 a22:	1f 93       	push	r17
 a24:	cf 93       	push	r28
 a26:	df 93       	push	r29
	char i=0;
	LCD_clearscreen();
 a28:	0e 94 f3 04 	call	0x9e6	; 0x9e6 <LCD_clearscreen>
	LCD_vSend_string("SET PASSWORD");
 a2c:	80 e7       	ldi	r24, 0x70	; 112
 a2e:	90 e0       	ldi	r25, 0x00	; 0
 a30:	0e 94 e4 04 	call	0x9c8	; 0x9c8 <LCD_vSend_string>
	LCD_movecursor(2,1);
 a34:	82 e0       	ldi	r24, 0x02	; 2
 a36:	61 e0       	ldi	r22, 0x01	; 1
 a38:	0e 94 fd 04 	call	0x9fa	; 0x9fa <LCD_movecursor>
 a3c:	c0 e2       	ldi	r28, 0x20	; 32
 a3e:	d0 e0       	ldi	r29, 0x00	; 0
	for(i=0;i<4;i++)
	{
		char x;
		do
		{
			x=keypad_u8read();
 a40:	0e 94 c0 03 	call	0x780	; 0x780 <keypad_u8read>
 a44:	18 2f       	mov	r17, r24
		}
		while(x==0xFF);
 a46:	8f 3f       	cpi	r24, 0xFF	; 255
 a48:	d9 f3       	breq	.-10     	; 0xa40 <set_password+0x1e>
		LCD_vSend_char(x);
 a4a:	0e 94 be 04 	call	0x97c	; 0x97c <LCD_vSend_char>
 a4e:	83 e2       	ldi	r24, 0x23	; 35
 a50:	94 ef       	ldi	r25, 0xF4	; 244
 a52:	01 97       	sbiw	r24, 0x01	; 1
 a54:	f1 f7       	brne	.-4      	; 0xa52 <set_password+0x30>
 a56:	00 c0       	rjmp	.+0      	; 0xa58 <set_password+0x36>
 a58:	00 00       	nop
		}
	}
	EEPROM_vWrite(200,0x00);
}
*/
void set_password(void)
 a5a:	6c 2f       	mov	r22, r28
 a5c:	6f 51       	subi	r22, 0x1F	; 31
			x=keypad_u8read();
		}
		while(x==0xFF);
		LCD_vSend_char(x);
		_delay_ms(250);
		LCD_movecursor(2,1+i);
 a5e:	82 e0       	ldi	r24, 0x02	; 2
 a60:	0e 94 fd 04 	call	0x9fa	; 0x9fa <LCD_movecursor>
		LCD_vSend_char('*');
 a64:	8a e2       	ldi	r24, 0x2A	; 42
 a66:	0e 94 be 04 	call	0x97c	; 0x97c <LCD_vSend_char>
		EEPROM_vWrite(PASSWORD_LOC0+i,x);
 a6a:	ce 01       	movw	r24, r28
 a6c:	61 2f       	mov	r22, r17
 a6e:	0e 94 9a 03 	call	0x734	; 0x734 <EEPROM_vWrite>
 a72:	21 96       	adiw	r28, 0x01	; 1
{
	char i=0;
	LCD_clearscreen();
	LCD_vSend_string("SET PASSWORD");
	LCD_movecursor(2,1);
	for(i=0;i<4;i++)
 a74:	c4 32       	cpi	r28, 0x24	; 36
 a76:	d1 05       	cpc	r29, r1
 a78:	19 f7       	brne	.-58     	; 0xa40 <set_password+0x1e>
		_delay_ms(250);
		LCD_movecursor(2,1+i);
		LCD_vSend_char('*');
		EEPROM_vWrite(PASSWORD_LOC0+i,x);
	}
}
 a7a:	df 91       	pop	r29
 a7c:	cf 91       	pop	r28
 a7e:	1f 91       	pop	r17
 a80:	08 95       	ret

00000a82 <main>:
int main(void)
{
 a82:	2f 92       	push	r2
 a84:	3f 92       	push	r3
 a86:	4f 92       	push	r4
 a88:	5f 92       	push	r5
 a8a:	6f 92       	push	r6
 a8c:	7f 92       	push	r7
 a8e:	8f 92       	push	r8
 a90:	9f 92       	push	r9
 a92:	af 92       	push	r10
 a94:	bf 92       	push	r11
 a96:	cf 92       	push	r12
 a98:	df 92       	push	r13
 a9a:	ef 92       	push	r14
 a9c:	ff 92       	push	r15
 a9e:	0f 93       	push	r16
 aa0:	1f 93       	push	r17
 aa2:	cf 93       	push	r28
 aa4:	df 93       	push	r29
 aa6:	00 d0       	rcall	.+0      	; 0xaa8 <main+0x26>
 aa8:	00 d0       	rcall	.+0      	; 0xaaa <main+0x28>
 aaa:	00 d0       	rcall	.+0      	; 0xaac <main+0x2a>
 aac:	cd b7       	in	r28, 0x3d	; 61
 aae:	de b7       	in	r29, 0x3e	; 62
	keypad_vInit();
 ab0:	0e 94 a7 03 	call	0x74e	; 0x74e <keypad_vInit>
	LCD_vInit();
 ab4:	0e 94 50 04 	call	0x8a0	; 0x8a0 <LCD_vInit>
	LCD_vSend_string("Welcome");
 ab8:	8d e7       	ldi	r24, 0x7D	; 125
 aba:	90 e0       	ldi	r25, 0x00	; 0
 abc:	0e 94 e4 04 	call	0x9c8	; 0x9c8 <LCD_vSend_string>
 ac0:	8f e4       	ldi	r24, 0x4F	; 79
 ac2:	93 ec       	ldi	r25, 0xC3	; 195
 ac4:	01 97       	sbiw	r24, 0x01	; 1
 ac6:	f1 f7       	brne	.-4      	; 0xac4 <main+0x42>
 ac8:	00 c0       	rjmp	.+0      	; 0xaca <main+0x48>
 aca:	00 00       	nop
	_delay_ms(200);
	LCD_clearscreen();
 acc:	0e 94 f3 04 	call	0x9e6	; 0x9e6 <LCD_clearscreen>
	char j;
	char trials=0;
	char password[4];
	char flag=0;
	char c;
	if(EEPROM_u8Read(CHECK_PASSWORD_SETTING)==0xFF)
 ad0:	80 e3       	ldi	r24, 0x30	; 48
 ad2:	90 e0       	ldi	r25, 0x00	; 0
 ad4:	0e 94 a2 03 	call	0x744	; 0x744 <EEPROM_u8Read>
 ad8:	8f 3f       	cpi	r24, 0xFF	; 255
 ada:	39 f4       	brne	.+14     	; 0xaea <main+0x68>
	{
		set_password();
 adc:	0e 94 11 05 	call	0xa22	; 0xa22 <set_password>
		EEPROM_vWrite(CHECK_PASSWORD_SETTING,0x00);
 ae0:	80 e3       	ldi	r24, 0x30	; 48
 ae2:	90 e0       	ldi	r25, 0x00	; 0
 ae4:	60 e0       	ldi	r22, 0x00	; 0
 ae6:	0e 94 9a 03 	call	0x734	; 0x734 <EEPROM_vWrite>
		LCD_vSend_char('*');
		EEPROM_vWrite(PASSWORD_LOC0+i,x);
	}
}
int main(void)
{
 aea:	0f 2e       	mov	r0, r31
 aec:	f3 e3       	ldi	r31, 0x33	; 51
 aee:	bf 2e       	mov	r11, r31
 af0:	f0 2d       	mov	r31, r0
 af2:	aa 24       	eor	r10, r10
		{
			trials=5;
			continue;
		}
		LCD_clearscreen();
		LCD_vSend_string("Enter Password: ");
 af4:	0f 2e       	mov	r0, r31
 af6:	f5 e8       	ldi	r31, 0x85	; 133
 af8:	4f 2e       	mov	r4, r31
 afa:	f0 e0       	ldi	r31, 0x00	; 0
 afc:	5f 2e       	mov	r5, r31
 afe:	f0 2d       	mov	r31, r0
		LCD_movecursor(2,1);
 b00:	88 24       	eor	r8, r8
 b02:	83 94       	inc	r8
 b04:	3e 01       	movw	r6, r28
 b06:	08 94       	sec
 b08:	61 1c       	adc	r6, r1
 b0a:	71 1c       	adc	r7, r1
 b0c:	6d 82       	std	Y+5, r6	; 0x05
 b0e:	7e 82       	std	Y+6, r7	; 0x06
			LCD_vSend_char('*');
			_delay_ms(200);
		}
		
	    LCD_clearscreen();
	    LCD_vSend_string("Loading...");
 b10:	0f 2e       	mov	r0, r31
 b12:	f6 e9       	ldi	r31, 0x96	; 150
 b14:	2f 2e       	mov	r2, r31
 b16:	f0 e0       	ldi	r31, 0x00	; 0
 b18:	3f 2e       	mov	r3, r31
 b1a:	f0 2d       	mov	r31, r0
	    _delay_ms(200);
		
	    for(c=0;c<4;c++)
	    {
		    if(password[c]==EEPROM_u8Read(PASSWORD_LOC0+c)) continue;
		    else flag=1;
 b1c:	98 2c       	mov	r9, r8
		set_password();
		EEPROM_vWrite(CHECK_PASSWORD_SETTING,0x00);
	}
    while(trials<Max_Trials)
    {
		if(EEPROM_u8Read(LOCKFLAG)==0x00)
 b1e:	80 e1       	ldi	r24, 0x10	; 16
 b20:	90 e0       	ldi	r25, 0x00	; 0
 b22:	0e 94 a2 03 	call	0x744	; 0x744 <EEPROM_u8Read>
 b26:	88 23       	and	r24, r24
 b28:	09 f4       	brne	.+2      	; 0xb2c <main+0xaa>
 b2a:	e5 c0       	rjmp	.+458    	; 0xcf6 <main+0x274>
		{
			trials=5;
			continue;
		}
		LCD_clearscreen();
 b2c:	0e 94 f3 04 	call	0x9e6	; 0x9e6 <LCD_clearscreen>
		LCD_vSend_string("Enter Password: ");
 b30:	c2 01       	movw	r24, r4
 b32:	0e 94 e4 04 	call	0x9c8	; 0x9c8 <LCD_vSend_string>
		LCD_movecursor(2,1);
 b36:	82 e0       	ldi	r24, 0x02	; 2
 b38:	68 2d       	mov	r22, r8
 b3a:	0e 94 fd 04 	call	0x9fa	; 0x9fa <LCD_movecursor>
 b3e:	63 01       	movw	r12, r6
 b40:	0d 81       	ldd	r16, Y+5	; 0x05
 b42:	1e 81       	ldd	r17, Y+6	; 0x06
		for(j=0;j<4;j++)
 b44:	ff 24       	eor	r15, r15
		{
			do
			{
				password[j]=keypad_u8read();
 b46:	0e 94 c0 03 	call	0x780	; 0x780 <keypad_u8read>
 b4a:	d8 01       	movw	r26, r16
 b4c:	8c 93       	st	X, r24
			} while (password[j]==0xFF);
 b4e:	8f 3f       	cpi	r24, 0xFF	; 255
 b50:	d1 f3       	breq	.-12     	; 0xb46 <main+0xc4>
			LCD_vSend_char(password[j]);
 b52:	0e 94 be 04 	call	0x97c	; 0x97c <LCD_vSend_char>
 b56:	e3 e2       	ldi	r30, 0x23	; 35
 b58:	f4 ef       	ldi	r31, 0xF4	; 244
 b5a:	31 97       	sbiw	r30, 0x01	; 1
 b5c:	f1 f7       	brne	.-4      	; 0xb5a <main+0xd8>
 b5e:	00 c0       	rjmp	.+0      	; 0xb60 <main+0xde>
 b60:	00 00       	nop
			_delay_ms(250);
			LCD_movecursor(2,1+j);
 b62:	f3 94       	inc	r15
 b64:	82 e0       	ldi	r24, 0x02	; 2
 b66:	6f 2d       	mov	r22, r15
 b68:	0e 94 fd 04 	call	0x9fa	; 0x9fa <LCD_movecursor>
			LCD_vSend_char('*');
 b6c:	8a e2       	ldi	r24, 0x2A	; 42
 b6e:	0e 94 be 04 	call	0x97c	; 0x97c <LCD_vSend_char>
 b72:	8f e4       	ldi	r24, 0x4F	; 79
 b74:	93 ec       	ldi	r25, 0xC3	; 195
 b76:	01 97       	sbiw	r24, 0x01	; 1
 b78:	f1 f7       	brne	.-4      	; 0xb76 <main+0xf4>
 b7a:	00 c0       	rjmp	.+0      	; 0xb7c <main+0xfa>
 b7c:	00 00       	nop
 b7e:	0f 5f       	subi	r16, 0xFF	; 255
 b80:	1f 4f       	sbci	r17, 0xFF	; 255
			continue;
		}
		LCD_clearscreen();
		LCD_vSend_string("Enter Password: ");
		LCD_movecursor(2,1);
		for(j=0;j<4;j++)
 b82:	94 e0       	ldi	r25, 0x04	; 4
 b84:	f9 16       	cp	r15, r25
 b86:	f9 f6       	brne	.-66     	; 0xb46 <main+0xc4>
			LCD_movecursor(2,1+j);
			LCD_vSend_char('*');
			_delay_ms(200);
		}
		
	    LCD_clearscreen();
 b88:	0e 94 f3 04 	call	0x9e6	; 0x9e6 <LCD_clearscreen>
	    LCD_vSend_string("Loading...");
 b8c:	c1 01       	movw	r24, r2
 b8e:	0e 94 e4 04 	call	0x9c8	; 0x9c8 <LCD_vSend_string>
 b92:	af e4       	ldi	r26, 0x4F	; 79
 b94:	b3 ec       	ldi	r27, 0xC3	; 195
 b96:	11 97       	sbiw	r26, 0x01	; 1
 b98:	f1 f7       	brne	.-4      	; 0xb96 <main+0x114>
 b9a:	00 c0       	rjmp	.+0      	; 0xb9c <main+0x11a>
 b9c:	00 00       	nop
 b9e:	ee 24       	eor	r14, r14
 ba0:	ff 24       	eor	r15, r15
 ba2:	68 94       	set
 ba4:	e5 f8       	bld	r14, 5
	    _delay_ms(200);
		
	    for(c=0;c<4;c++)
	    {
		    if(password[c]==EEPROM_u8Read(PASSWORD_LOC0+c)) continue;
 ba6:	f6 01       	movw	r30, r12
 ba8:	11 91       	ld	r17, Z+
 baa:	6f 01       	movw	r12, r30
 bac:	c7 01       	movw	r24, r14
 bae:	0e 94 a2 03 	call	0x744	; 0x744 <EEPROM_u8Read>
 bb2:	18 13       	cpse	r17, r24
		    else flag=1;
 bb4:	a9 2c       	mov	r10, r9
	    LCD_vSend_string("Loading...");
	    _delay_ms(200);
		
	    for(c=0;c<4;c++)
	    {
		    if(password[c]==EEPROM_u8Read(PASSWORD_LOC0+c)) continue;
 bb6:	08 94       	sec
 bb8:	e1 1c       	adc	r14, r1
 bba:	f1 1c       	adc	r15, r1
		
	    LCD_clearscreen();
	    LCD_vSend_string("Loading...");
	    _delay_ms(200);
		
	    for(c=0;c<4;c++)
 bbc:	f4 e2       	ldi	r31, 0x24	; 36
 bbe:	ef 16       	cp	r14, r31
 bc0:	f1 04       	cpc	r15, r1
 bc2:	89 f7       	brne	.-30     	; 0xba6 <main+0x124>
	    {
		    if(password[c]==EEPROM_u8Read(PASSWORD_LOC0+c)) continue;
		    else flag=1;
	    }
	    if(flag==1)
 bc4:	81 e0       	ldi	r24, 0x01	; 1
 bc6:	a8 16       	cp	r10, r24
 bc8:	01 f5       	brne	.+64     	; 0xc0a <main+0x188>
	    {
			trials++;
		    LCD_clearscreen();
 bca:	0e 94 f3 04 	call	0x9e6	; 0x9e6 <LCD_clearscreen>
		    LCD_vSend_string("WRONG PASSWORD!");
 bce:	81 ea       	ldi	r24, 0xA1	; 161
 bd0:	90 e0       	ldi	r25, 0x00	; 0
 bd2:	0e 94 e4 04 	call	0x9c8	; 0x9c8 <LCD_vSend_string>
			LCD_movecursor(2,1);
 bd6:	82 e0       	ldi	r24, 0x02	; 2
 bd8:	68 2d       	mov	r22, r8
 bda:	0e 94 fd 04 	call	0x9fa	; 0x9fa <LCD_movecursor>
			LCD_vSend_char((Max_Trials-trials)+48);
 bde:	8b 2d       	mov	r24, r11
 be0:	0e 94 be 04 	call	0x97c	; 0x97c <LCD_vSend_char>
			LCD_vSend_string(" trials left");
 be4:	81 eb       	ldi	r24, 0xB1	; 177
 be6:	90 e0       	ldi	r25, 0x00	; 0
 be8:	0e 94 e4 04 	call	0x9c8	; 0x9c8 <LCD_vSend_string>
 bec:	8f e3       	ldi	r24, 0x3F	; 63
 bee:	9d e0       	ldi	r25, 0x0D	; 13
 bf0:	a3 e0       	ldi	r26, 0x03	; 3
 bf2:	81 50       	subi	r24, 0x01	; 1
 bf4:	90 40       	sbci	r25, 0x00	; 0
 bf6:	a0 40       	sbci	r26, 0x00	; 0
 bf8:	e1 f7       	brne	.-8      	; 0xbf2 <main+0x170>
 bfa:	00 c0       	rjmp	.+0      	; 0xbfc <main+0x17a>
 bfc:	00 00       	nop
 bfe:	ba 94       	dec	r11
	if(EEPROM_u8Read(CHECK_PASSWORD_SETTING)==0xFF)
	{
		set_password();
		EEPROM_vWrite(CHECK_PASSWORD_SETTING,0x00);
	}
    while(trials<Max_Trials)
 c00:	9f e2       	ldi	r25, 0x2F	; 47
 c02:	b9 16       	cp	r11, r25
 c04:	09 f0       	breq	.+2      	; 0xc08 <main+0x186>
 c06:	8b cf       	rjmp	.-234    	; 0xb1e <main+0x9c>
 c08:	76 c0       	rjmp	.+236    	; 0xcf6 <main+0x274>
			LCD_vSend_string(" trials left");
		    _delay_ms(1000);
	    }
		else
		{
			LCD_clearscreen();
 c0a:	0e 94 f3 04 	call	0x9e6	; 0x9e6 <LCD_clearscreen>
			LCD_vSend_string("Correct Password");
 c0e:	8e eb       	ldi	r24, 0xBE	; 190
 c10:	90 e0       	ldi	r25, 0x00	; 0
 c12:	0e 94 e4 04 	call	0x9c8	; 0x9c8 <LCD_vSend_string>
 c16:	af e4       	ldi	r26, 0x4F	; 79
 c18:	b3 ec       	ldi	r27, 0xC3	; 195
 c1a:	11 97       	sbiw	r26, 0x01	; 1
 c1c:	f1 f7       	brne	.-4      	; 0xc1a <main+0x198>
 c1e:	00 c0       	rjmp	.+0      	; 0xc20 <main+0x19e>
 c20:	00 00       	nop
			_delay_ms(200);
			LCD_movecursor(2,1);
 c22:	82 e0       	ldi	r24, 0x02	; 2
 c24:	61 e0       	ldi	r22, 0x01	; 1
 c26:	0e 94 fd 04 	call	0x9fa	; 0x9fa <LCD_movecursor>
			LCD_vSend_string("Safe Open!");
 c2a:	8f ec       	ldi	r24, 0xCF	; 207
 c2c:	90 e0       	ldi	r25, 0x00	; 0
 c2e:	0e 94 e4 04 	call	0x9c8	; 0x9c8 <LCD_vSend_string>
 c32:	8f e3       	ldi	r24, 0x3F	; 63
 c34:	9d e0       	ldi	r25, 0x0D	; 13
 c36:	a3 e0       	ldi	r26, 0x03	; 3
 c38:	81 50       	subi	r24, 0x01	; 1
 c3a:	90 40       	sbci	r25, 0x00	; 0
 c3c:	a0 40       	sbci	r26, 0x00	; 0
 c3e:	e1 f7       	brne	.-8      	; 0xc38 <main+0x1b6>
 c40:	00 c0       	rjmp	.+0      	; 0xc42 <main+0x1c0>
 c42:	00 00       	nop
	}
	else
	{
		char x;
		do {
			x=keypad_u8read();
 c44:	0e 94 c0 03 	call	0x780	; 0x780 <keypad_u8read>
		} while(x==0xFF);
 c48:	8f 3f       	cpi	r24, 0xFF	; 255
 c4a:	e1 f3       	breq	.-8      	; 0xc44 <main+0x1c2>
		if(x=='A')
 c4c:	81 34       	cpi	r24, 0x41	; 65
 c4e:	a9 f5       	brne	.+106    	; 0xcba <main+0x238>
		{
			LCD_clearscreen();
 c50:	0e 94 f3 04 	call	0x9e6	; 0x9e6 <LCD_clearscreen>
			LCD_vSend_string("Resetting...");
 c54:	8a ed       	ldi	r24, 0xDA	; 218
 c56:	90 e0       	ldi	r25, 0x00	; 0
 c58:	0e 94 e4 04 	call	0x9c8	; 0x9c8 <LCD_vSend_string>
 c5c:	8f e3       	ldi	r24, 0x3F	; 63
 c5e:	9d e0       	ldi	r25, 0x0D	; 13
 c60:	a3 e0       	ldi	r26, 0x03	; 3
 c62:	81 50       	subi	r24, 0x01	; 1
 c64:	90 40       	sbci	r25, 0x00	; 0
 c66:	a0 40       	sbci	r26, 0x00	; 0
 c68:	e1 f7       	brne	.-8      	; 0xc62 <main+0x1e0>
 c6a:	00 c0       	rjmp	.+0      	; 0xc6c <main+0x1ea>
 c6c:	00 00       	nop
			_delay_ms(1000);
			set_password();
 c6e:	0e 94 11 05 	call	0xa22	; 0xa22 <set_password>
			LCD_clearscreen();
 c72:	0e 94 f3 04 	call	0x9e6	; 0x9e6 <LCD_clearscreen>
			LCD_vSend_string("Password Reset");
 c76:	87 ee       	ldi	r24, 0xE7	; 231
 c78:	90 e0       	ldi	r25, 0x00	; 0
 c7a:	0e 94 e4 04 	call	0x9c8	; 0x9c8 <LCD_vSend_string>
 c7e:	8f e9       	ldi	r24, 0x9F	; 159
 c80:	96 e8       	ldi	r25, 0x86	; 134
 c82:	a1 e0       	ldi	r26, 0x01	; 1
 c84:	81 50       	subi	r24, 0x01	; 1
 c86:	90 40       	sbci	r25, 0x00	; 0
 c88:	a0 40       	sbci	r26, 0x00	; 0
 c8a:	e1 f7       	brne	.-8      	; 0xc84 <main+0x202>
 c8c:	00 c0       	rjmp	.+0      	; 0xc8e <main+0x20c>
 c8e:	00 00       	nop
			_delay_ms(500);
			LCD_movecursor(2,1);
 c90:	82 e0       	ldi	r24, 0x02	; 2
 c92:	61 e0       	ldi	r22, 0x01	; 1
 c94:	0e 94 fd 04 	call	0x9fa	; 0x9fa <LCD_movecursor>
			LCD_vSend_string("Please Restart.");
 c98:	86 ef       	ldi	r24, 0xF6	; 246
 c9a:	90 e0       	ldi	r25, 0x00	; 0
 c9c:	0e 94 e4 04 	call	0x9c8	; 0x9c8 <LCD_vSend_string>
 ca0:	8f e3       	ldi	r24, 0x3F	; 63
 ca2:	9d e0       	ldi	r25, 0x0D	; 13
 ca4:	a3 e0       	ldi	r26, 0x03	; 3
 ca6:	81 50       	subi	r24, 0x01	; 1
 ca8:	90 40       	sbci	r25, 0x00	; 0
 caa:	a0 40       	sbci	r26, 0x00	; 0
 cac:	e1 f7       	brne	.-8      	; 0xca6 <main+0x224>
 cae:	00 c0       	rjmp	.+0      	; 0xcb0 <main+0x22e>
 cb0:	00 00       	nop
			_delay_ms(1000);
			LCD_vSend_cmd(0x08);
 cb2:	88 e0       	ldi	r24, 0x08	; 8
 cb4:	0e 94 24 04 	call	0x848	; 0x848 <LCD_vSend_cmd>
 cb8:	03 c0       	rjmp	.+6      	; 0xcc0 <main+0x23e>
		}
		else LCD_vSend_cmd(0x08);
 cba:	88 e0       	ldi	r24, 0x08	; 8
 cbc:	0e 94 24 04 	call	0x848	; 0x848 <LCD_vSend_cmd>
	}

 cc0:	80 e0       	ldi	r24, 0x00	; 0
 cc2:	90 e0       	ldi	r25, 0x00	; 0
 cc4:	26 96       	adiw	r28, 0x06	; 6
 cc6:	0f b6       	in	r0, 0x3f	; 63
 cc8:	f8 94       	cli
 cca:	de bf       	out	0x3e, r29	; 62
 ccc:	0f be       	out	0x3f, r0	; 63
 cce:	cd bf       	out	0x3d, r28	; 61
 cd0:	df 91       	pop	r29
 cd2:	cf 91       	pop	r28
 cd4:	1f 91       	pop	r17
 cd6:	0f 91       	pop	r16
 cd8:	ff 90       	pop	r15
 cda:	ef 90       	pop	r14
 cdc:	df 90       	pop	r13
 cde:	cf 90       	pop	r12
 ce0:	bf 90       	pop	r11
 ce2:	af 90       	pop	r10
 ce4:	9f 90       	pop	r9
 ce6:	8f 90       	pop	r8
 ce8:	7f 90       	pop	r7
 cea:	6f 90       	pop	r6
 cec:	5f 90       	pop	r5
 cee:	4f 90       	pop	r4
 cf0:	3f 90       	pop	r3
 cf2:	2f 90       	pop	r2
 cf4:	08 95       	ret
		}
    }
	
	if(trials>=Max_Trials)
	{
		LCD_clearscreen();
 cf6:	0e 94 f3 04 	call	0x9e6	; 0x9e6 <LCD_clearscreen>
		LCD_vSend_string("SAFE LOCKED !");
 cfa:	86 e0       	ldi	r24, 0x06	; 6
 cfc:	91 e0       	ldi	r25, 0x01	; 1
 cfe:	0e 94 e4 04 	call	0x9c8	; 0x9c8 <LCD_vSend_string>
		EEPROM_vWrite(LOCKFLAG,0x00);
 d02:	80 e1       	ldi	r24, 0x10	; 16
 d04:	90 e0       	ldi	r25, 0x00	; 0
 d06:	60 e0       	ldi	r22, 0x00	; 0
 d08:	0e 94 9a 03 	call	0x734	; 0x734 <EEPROM_vWrite>
 d0c:	8f e9       	ldi	r24, 0x9F	; 159
 d0e:	96 e8       	ldi	r25, 0x86	; 134
 d10:	a1 e0       	ldi	r26, 0x01	; 1
 d12:	81 50       	subi	r24, 0x01	; 1
 d14:	90 40       	sbci	r25, 0x00	; 0
 d16:	a0 40       	sbci	r26, 0x00	; 0
 d18:	e1 f7       	brne	.-8      	; 0xd12 <main+0x290>
 d1a:	00 c0       	rjmp	.+0      	; 0xd1c <main+0x29a>
 d1c:	00 00       	nop
		_delay_ms(500);
		LCD_vSend_cmd(0x08);
 d1e:	88 e0       	ldi	r24, 0x08	; 8
 d20:	0e 94 24 04 	call	0x848	; 0x848 <LCD_vSend_cmd>
 d24:	cd cf       	rjmp	.-102    	; 0xcc0 <main+0x23e>

00000d26 <_exit>:
 d26:	f8 94       	cli

00000d28 <__stop_program>:
 d28:	ff cf       	rjmp	.-2      	; 0xd28 <__stop_program>
